
dtb_expert.elf:     file format elf32-littlenios2
dtb_expert.elf
architecture: nios2, flags 0x00000112:
EXEC_P, HAS_SYMS, D_PAGED
start address 0x00000250

Program Header:
    LOAD off    0x00000000 vaddr 0x00000000 paddr 0x00000000 align 2**12
         filesz 0x0004cdd0 memsz 0x0005e530 flags rwx
    LOAD off    0x0004d000 vaddr 0x08000000 paddr 0x08000000 align 2**12
         filesz 0x00000000 memsz 0x00000000 flags r-x
    LOAD off    0x0004d000 vaddr 0x08402000 paddr 0x08402000 align 2**12
         filesz 0x00000100 memsz 0x00000100 flags rw-

Sections:
Idx Name          Size      VMA       LMA       File off  Algn
  0 .entry        00000000  08000000  08000000  0004d000  2**5
                  CONTENTS, ALLOC, LOAD, READONLY, CODE
  1 .exceptions   00000130  00000120  00000120  00000120  2**2
                  CONTENTS, ALLOC, LOAD, READONLY, CODE
  2 .text         00046bd4  00000250  00000250  00000250  2**2
                  CONTENTS, ALLOC, LOAD, READONLY, CODE
  3 .rodata       00003f80  00046e24  00046e24  00046e24  2**2
                  CONTENTS, ALLOC, LOAD, READONLY, DATA
  4 .rwdata       0000202c  0004ada4  0004ada4  0004ada4  2**2
                  CONTENTS, ALLOC, LOAD, DATA, SMALL_DATA
  5 .bss          00011760  0004cdd0  0004cdd0  0004cdd0  2**2
                  ALLOC, SMALL_DATA
  6 .descriptor_memory 00000100  08402000  08402000  0004d000  2**0
                  CONTENTS, ALLOC, LOAD, DATA
  7 .comment      00000023  00000000  00000000  0004d100  2**0
                  CONTENTS, READONLY
  8 .debug_aranges 00001960  00000000  00000000  0004d128  2**3
                  CONTENTS, READONLY, DEBUGGING
  9 .debug_info   00065c42  00000000  00000000  0004ea88  2**0
                  CONTENTS, READONLY, DEBUGGING
 10 .debug_abbrev 0001057a  00000000  00000000  000b46ca  2**0
                  CONTENTS, READONLY, DEBUGGING
 11 .debug_line   000165a1  00000000  00000000  000c4c44  2**0
                  CONTENTS, READONLY, DEBUGGING
 12 .debug_frame  00003974  00000000  00000000  000db1e8  2**2
                  CONTENTS, READONLY, DEBUGGING
 13 .debug_str    0000e1c2  00000000  00000000  000deb5c  2**0
                  CONTENTS, READONLY, DEBUGGING
 14 .debug_loc    0002e199  00000000  00000000  000ecd1e  2**0
                  CONTENTS, READONLY, DEBUGGING
 15 .debug_alt_sim_info 00000050  00000000  00000000  0011aeb8  2**2
                  CONTENTS, READONLY, DEBUGGING
 16 .debug_ranges 00005850  00000000  00000000  0011af08  2**3
                  CONTENTS, READONLY, DEBUGGING
 17 .thread_model 00000003  00000000  00000000  00130c40  2**0
                  CONTENTS, READONLY
 18 .cpu          00000003  00000000  00000000  00130c43  2**0
                  CONTENTS, READONLY
 19 .qsys         00000001  00000000  00000000  00130c46  2**0
                  CONTENTS, READONLY
 20 .simulation_enabled 00000001  00000000  00000000  00130c47  2**0
                  CONTENTS, READONLY
 21 .sysid_hash   00000004  00000000  00000000  00130c48  2**0
                  CONTENTS, READONLY
 22 .sysid_base   00000004  00000000  00000000  00130c4c  2**0
                  CONTENTS, READONLY
 23 .sysid_time   00000004  00000000  00000000  00130c50  2**0
                  CONTENTS, READONLY
 24 .stderr_dev   00000009  00000000  00000000  00130c54  2**0
                  CONTENTS, READONLY
 25 .stdin_dev    00000009  00000000  00000000  00130c5d  2**0
                  CONTENTS, READONLY
 26 .stdout_dev   00000009  00000000  00000000  00130c66  2**0
                  CONTENTS, READONLY
 27 .sopc_system_name 0000000a  00000000  00000000  00130c6f  2**0
                  CONTENTS, READONLY
 28 .jdi          0001294f  00000000  00000000  00130c79  2**0
                  CONTENTS, READONLY
 29 .sopcinfo     0015580c  00000000  00000000  001435c8  2**0
                  CONTENTS, READONLY
SYMBOL TABLE:
08000000 l    d  .entry	00000000 .entry
00000120 l    d  .exceptions	00000000 .exceptions
00000250 l    d  .text	00000000 .text
00046e24 l    d  .rodata	00000000 .rodata
0004ada4 l    d  .rwdata	00000000 .rwdata
0004cdd0 l    d  .bss	00000000 .bss
08402000 l    d  .descriptor_memory	00000000 .descriptor_memory
00000000 l    d  .comment	00000000 .comment
00000000 l    d  .debug_aranges	00000000 .debug_aranges
00000000 l    d  .debug_info	00000000 .debug_info
00000000 l    d  .debug_abbrev	00000000 .debug_abbrev
00000000 l    d  .debug_line	00000000 .debug_line
00000000 l    d  .debug_frame	00000000 .debug_frame
00000000 l    d  .debug_str	00000000 .debug_str
00000000 l    d  .debug_loc	00000000 .debug_loc
00000000 l    d  .debug_alt_sim_info	00000000 .debug_alt_sim_info
00000000 l    d  .debug_ranges	00000000 .debug_ranges
00000000 l    df *ABS*	00000000 ../dtb_bsp//obj/HAL/src/crt0.o
00000294 l       .text	00000000 alt_after_alt_main
00000000 l    df *ABS*	00000000 alt_exception_entry.o
00000194 l       .exceptions	00000000 alt_exception_unknown
00000000 l    df *ABS*	00000000 alt_irq_handler.c
00000000 l    df *ABS*	00000000 ff.c
00000298 l     F .text	00000288 get_fileinfo
00000520 l     F .text	00000100 move_window
00000620 l     F .text	000001a4 sync
000007c4 l     F .text	00000638 chk_mounted
0004cdd4 l     O .bss	00000001 CurrVol
0004cdd0 l     O .bss	00000004 FatFs
0004cdd8 l     O .bss	00000002 Fsid
00000dfc l     F .text	0000042c put_fat.part.4
00001228 l     F .text	000003f4 get_fat.part.2
0000161c l     F .text	00000154 dir_sdi
00001770 l     F .text	000001b8 create_chain
00001928 l     F .text	000004bc dir_register
00001de4 l     F .text	00000124 dir_next.constprop.8
00001f08 l     F .text	000004dc follow_path
00046e68 l     O .rodata	00000080 excvt.1814
000023e4 l     F .text	0000015c dir_read
00046ee8 l     O .rodata	00000016 vst.2089
00046efe l     O .rodata	00000016 cst.2090
00000000 l    df *ABS*	00000000 fatfs.c
00000000 l    df *ABS*	00000000 fatfs_diskio.c
000065b8 l     F .text	00000120 ReceiveDatablock.part.0
0004cde0 l     O .bss	00000002 Control1
000066d8 l     F .text	000000c8 TransmitDatablock.part.1
000067a0 l     F .text	000002a0 SendCMD
0004cddc l     O .bss	00000002 Timer2
0004cdde l     O .bss	00000002 Timer1
0004cde4 l     O .bss	00000004 pvm.1779
0004cd18 l     O .rwdata	00000001 Stat
0004cde8 l     O .bss	00000001 CardType
00000000 l    df *ABS*	00000000 trigger_loops.cpp
00046f48 l     O .rodata	00000400 _ZZN10CTestboard13CalibratedDACEjE3dac
00000000 l    df *ABS*	00000000 FlashMemory.cc
00000000 l    df *ABS*	00000000 SRecordReader.cc
00000000 l    df *ABS*	00000000 debug.cc
00000000 l    df *ABS*	00000000 dtb_config.cc
00010a30 l     F .text	00000024 _GLOBAL__sub_I_dtbConfig
00010a54 l     F .text	0000000c _GLOBAL__sub_D_dtbConfig
00000000 l    df *ABS*	00000000 dtb_hal.cc
00000000 l    df *ABS*	00000000 dtb_main.cc
00010f6c l     F .text	0000000c _GLOBAL__sub_I_tb
00010f78 l     F .text	00000018 _GLOBAL__sub_D_tb
00000000 l    df *ABS*	00000000 ethernet.cc
00000000 l    df *ABS*	00000000 pixel_dtb.cc
00011218 l     F .text	00000224 _ZN10CTestboard8Daq_OpenEjh.part.6
00047664 l     O .rodata	00000034 _ZL9delayConv
00047698 l     O .rodata	00000014 _ZZN10CTestboard19Sig_SetRdaToutDelayEhE9delayStep
00017b64 l     F .text	00000214 _ZN10CTestboard8Daq_ReadERSt6vectorItSaItEEjRjh.part.82
00000000 l    df *ABS*	00000000 roctest.cc
0004cd38 l     O .rwdata	00000001 _ZZ9FindLevelvE1x
00000000 l    df *ABS*	00000000 rpc.cc
0001fd4c l     F .text	00000008 _GLOBAL__sub_I_rpc_error
00000000 l    df *ABS*	00000000 rpc_dtb.cc
00025150 l     F .text	00000170 _Z14rpc_RecvVectorIhEbR10rpcMessageRSt6vectorIT_SaIS3_EE.part.162
00000000 l    df *ABS*	00000000 sgdma.cc
00000000 l    df *ABS*	00000000 ugerror.cc
00048820 l     O .rodata	0000003c CSWTCH.4
00028e2c l     F .text	00000008 _GLOBAL__sub_I_flash_error
00000000 l    df *ABS*	00000000 pure.cc
00000000 l    df *ABS*	00000000 class_type_info.cc
00000000 l    df *ABS*	00000000 del_opv.cc
00000000 l    df *ABS*	00000000 eh_personality.cc
00029164 l     F .text	0000005c _ZL12read_sleb128PKhPl
000291c0 l     F .text	000000a8 _ZL16get_adjusted_ptrPKSt9type_infoS1_PPv
00029268 l     F .text	00000090 _ZL21base_of_encoded_valuehP15_Unwind_Context
000292f8 l     F .text	000001fc _ZL28read_encoded_value_with_basehjPKhPj
000294f4 l     F .text	00000124 _ZL17parse_lsda_headerP15_Unwind_ContextPKhP16lsda_header_info
00029618 l     F .text	000000a8 _ZL21size_of_encoded_valueh
000296c0 l     F .text	00000058 _ZL15get_ttype_entryP16lsda_header_infom
00029718 l     F .text	000000b0 _ZL20check_exception_specP16lsda_header_infoPKSt9type_infoPvl
000297c8 l     F .text	00000190 _ZL28check_compact_exception_specPKSt9type_infoPvPKhij
00000000 l    df *ABS*	00000000 eh_terminate.cc
00000000 l    df *ABS*	00000000 eh_term_handler.cc
00000000 l    df *ABS*	00000000 eh_catch.cc
00000000 l    df *ABS*	00000000 del_op.cc
00000000 l    df *ABS*	00000000 eh_throw.cc
0002a384 l     F .text	00000048 _ZL23__gxx_exception_cleanup19_Unwind_Reason_CodeP17_Unwind_Exception
00000000 l    df *ABS*	00000000 vterminate.cc
0004ce04 l     O .bss	00000001 _ZZN9__gnu_cxx27__verbose_terminate_handlerEvE11terminating
00000000 l    df *ABS*	00000000 si_class_type_info.cc
00000000 l    df *ABS*	00000000 tinfo.cc
00000000 l    df *ABS*	00000000 eh_alloc.cc
0004ce08 l     O .bss	00000004 _ZL14emergency_used
0005d978 l     O .bss	00000800 _ZL16emergency_buffer
0004ce0c l     O .bss	00000004 _ZL15dependents_used
0005e178 l     O .bss	000000f0 _ZL17dependents_buffer
00000000 l    df *ABS*	00000000 new_opv.cc
00000000 l    df *ABS*	00000000 eh_type.cc
00000000 l    df *ABS*	00000000 new_op.cc
00000000 l    df *ABS*	00000000 functexcept.cc
00000000 l    df *ABS*	00000000 system_error.cc
0002bb6c l     F .text	0000000c _ZNK12_GLOBAL__N_122generic_error_category4nameEv
0002bb78 l     F .text	0000000c _ZNK12_GLOBAL__N_121system_error_category4nameEv
0002bc10 l     F .text	00000010 _ZN12_GLOBAL__N_121system_error_categoryD2Ev
0002bc10 l     F .text	00000010 _ZN12_GLOBAL__N_121system_error_categoryD1Ev
0002bc20 l     F .text	00000010 _ZN12_GLOBAL__N_122generic_error_categoryD2Ev
0002bc20 l     F .text	00000010 _ZN12_GLOBAL__N_122generic_error_categoryD1Ev
0002bc30 l     F .text	00000040 _ZNK12_GLOBAL__N_122generic_error_category7messageEi
0002bc70 l     F .text	00000040 _ZNK12_GLOBAL__N_121system_error_category7messageEi
0002bcc4 l     F .text	00000014 _ZN12_GLOBAL__N_121system_error_categoryD0Ev
0002bcd8 l     F .text	00000014 _ZN12_GLOBAL__N_122generic_error_categoryD0Ev
0004ce10 l     O .bss	00000004 _ZN12_GLOBAL__N_1L24system_category_instanceE
0004ce14 l     O .bss	00000004 _ZN12_GLOBAL__N_1L25generic_category_instanceE
0002bd7c l     F .text	0000001c _GLOBAL__sub_I__ZNSt14error_categoryC2Ev
00048acc l     O .rodata	00000024 _ZTVN12_GLOBAL__N_122generic_error_categoryE
00048aa8 l     O .rodata	00000024 _ZTVN12_GLOBAL__N_121system_error_categoryE
0002bd98 l     F .text	00000014 _GLOBAL__sub_D__ZNSt14error_categoryC2Ev
00048af0 l     O .rodata	0000000c _ZTIN12_GLOBAL__N_121system_error_categoryE
00048afc l     O .rodata	0000000c _ZTIN12_GLOBAL__N_122generic_error_categoryE
00048b08 l     O .rodata	00000029 _ZTSN12_GLOBAL__N_121system_error_categoryE
00048b34 l     O .rodata	0000002a _ZTSN12_GLOBAL__N_122generic_error_categoryE
00000000 l    df *ABS*	00000000 future.cc
0002bdac l     F .text	0000000c _ZNK12_GLOBAL__N_121future_error_category4nameEv
0002bdf8 l     F .text	00000014 _ZN12_GLOBAL__N_121future_error_categoryD2Ev
00048c08 l     O .rodata	00000024 _ZTVN12_GLOBAL__N_121future_error_categoryE
0002bdf8 l     F .text	00000014 _ZN12_GLOBAL__N_121future_error_categoryD1Ev
0002be0c l     F .text	0000001c __tcf_0
0004ce20 l     O .bss	00000004 _ZZN12_GLOBAL__N_126__future_category_instanceEvE5__fec
0002be28 l     F .text	00000038 _ZN12_GLOBAL__N_121future_error_categoryD0Ev
0002befc l     F .text	000001c0 _ZNK12_GLOBAL__N_121future_error_category7messageEi
0004ce18 l     O .bss	00000008 _ZGVZN12_GLOBAL__N_126__future_category_instanceEvE5__fec
00048c2c l     O .rodata	0000000c _ZTIN12_GLOBAL__N_121future_error_categoryE
00048c38 l     O .rodata	00000029 _ZTSN12_GLOBAL__N_121future_error_categoryE
00000000 l    df *ABS*	00000000 string-inst.cc
0002c124 l     F .text	00000014 _ZNSs4_Rep26_M_set_length_and_sharableEj.part.4
0002d474 l     F .text	0000001c _ZNSs4_Rep10_M_disposeERKSaIcE.part.11
00000000 l    df *ABS*	00000000 regex.cc
00000000 l    df *ABS*	00000000 functional.cc
00000000 l    df *ABS*	00000000 eh_exception.cc
00000000 l    df *ABS*	00000000 eh_call.cc
00000000 l    df *ABS*	00000000 new_handler.cc
00000000 l    df *ABS*	00000000 eh_globals.cc
0004ce28 l     O .bss	00000008 _ZL10eh_globals
00000000 l    df *ABS*	00000000 guard.cc
00000000 l    df *ABS*	00000000 eh_unex_handler.cc
00000000 l    df *ABS*	00000000 cp-demangle.c
0002fd30 l     F .text	00000198 d_make_comp
0002fec8 l     F .text	00000044 d_make_name
0002ff0c l     F .text	00000098 d_number
0002ffa4 l     F .text	00000070 d_number_component
00030014 l     F .text	00000190 d_cv_qualifiers
000301a4 l     F .text	00000080 d_compact_number
00030224 l     F .text	00000098 d_template_param
000302bc l     F .text	00000048 d_discriminator
00030304 l     F .text	00000220 d_substitution
00049910 l     O .rodata	000000c4 standard_subs
00030524 l     F .text	0000007c d_append_char
000305a0 l     F .text	0000006c d_lookup_template_argument
0003060c l     F .text	000001d4 d_find_pack
000307e0 l     F .text	00000110 d_source_name
000308f0 l     F .text	00000098 d_call_offset
00030988 l     F .text	000000cc d_append_string
00030a54 l     F .text	00000194 d_expr_primary
00032b38 l     F .text	00000884 d_encoding
00031250 l     F .text	00000b30 d_type
00030be8 l     F .text	00000184 d_template_args
000323b4 l     F .text	0000061c d_expression
00030d6c l     F .text	000004e4 d_name
00031ffc l     F .text	000003b8 d_unqualified_name
00032aa8 l     F .text	00000090 d_bare_function_type
0004967c l     O .rodata	00000294 cplus_demangle_builtin_types
00031d80 l     F .text	0000019c d_operator_name
000499d4 l     O .rodata	000003a0 cplus_demangle_operators
00031f1c l     F .text	000000e0 d_parmlist
000329d0 l     F .text	000000d8 d_exprlist
000333bc l     F .text	0000010c d_growable_string_callback_adapter
000334c8 l     F .text	00002d04 d_print_comp
000361cc l     F .text	00000690 d_print_mod
00036c08 l     F .text	000002ac d_print_array_type
00036eb4 l     F .text	00000314 d_print_function_type
000373e8 l     F .text	00000108 d_print_expr_op
000374f0 l     F .text	00000130 d_print_subexpr
000371c8 l     F .text	00000220 d_print_cast
0003685c l     F .text	000003ac d_print_mod_list
00037620 l     F .text	00000490 d_demangle_callback.constprop.8
00000000 l    df *ABS*	00000000 guard_error.cc
00000000 l    df *ABS*	00000000 bad_alloc.cc
00000000 l    df *ABS*	00000000 bad_typeid.cc
00000000 l    df *ABS*	00000000 bad_cast.cc
00000000 l    df *ABS*	00000000 ios_failure.cc
00000000 l    df *ABS*	00000000 stdexcept.cc
00000000 l    df *ABS*	00000000 libgcc2.c
00000000 l    df *ABS*	00000000 fp-bit.c
000384f0 l     F .text	00000354 _fpadd_parts
00000000 l    df *ABS*	00000000 fp-bit.c
00000000 l    df *ABS*	00000000 fp-bit.c
00000000 l    df *ABS*	00000000 fp-bit.c
00000000 l    df *ABS*	00000000 fp-bit.c
00000000 l    df *ABS*	00000000 fp-bit.c
00000000 l    df *ABS*	00000000 fp-bit.c
00000000 l    df *ABS*	00000000 fp-bit.c
00000000 l    df *ABS*	00000000 lib2-divmod.c
000390b8 l     F .text	00000074 udivmodsi4
00000000 l    df *ABS*	00000000 unwind-sjlj.c
000391e8 l     F .text	000000f8 _Unwind_ForcedUnwind_Phase2
0004ce30 l     O .bss	00000004 fc_static
000392e0 l     F .text	000000c8 _Unwind_RaiseException_Phase2
000393a8 l     F .text	00000028 uw_install_context.isra.1
00000000 l    df *ABS*	00000000 libgcc2.c
00000000 l    df *ABS*	00000000 libgcc2.c
00000000 l    df *ABS*	00000000 fp-bit.c
00000000 l    df *ABS*	00000000 fp-bit.c
00000000 l    df *ABS*	00000000 fp-bit.c
00000000 l    df *ABS*	00000000 libgcc2.c
00000000 l    df *ABS*	00000000 libgcc2.c
00000000 l    df *ABS*	00000000 libgcc2.c
00000000 l    df *ABS*	00000000 abort.c
00000000 l    df *ABS*	00000000 atexit.c
00000000 l    df *ABS*	00000000 atoi.c
00000000 l    df *ABS*	00000000 fputc.c
00000000 l    df *ABS*	00000000 fputs.c
00000000 l    df *ABS*	00000000 fvwrite.c
00000000 l    df *ABS*	00000000 fwrite.c
00000000 l    df *ABS*	00000000 impure.c
0004b1a4 l     O .rwdata	00000400 impure_data
00000000 l    df *ABS*	00000000 malloc.c
00000000 l    df *ABS*	00000000 mallocr.c
00000000 l    df *ABS*	00000000 memchr.c
00000000 l    df *ABS*	00000000 memcmp.c
00000000 l    df *ABS*	00000000 memcpy.c
00000000 l    df *ABS*	00000000 memmove.c
00000000 l    df *ABS*	00000000 memset.c
00000000 l    df *ABS*	00000000 printf.c
00000000 l    df *ABS*	00000000 putc.c
00000000 l    df *ABS*	00000000 putchar.c
00000000 l    df *ABS*	00000000 puts.c
00000000 l    df *ABS*	00000000 realloc.c
00000000 l    df *ABS*	00000000 mallocr.c
00000000 l    df *ABS*	00000000 sbrkr.c
00000000 l    df *ABS*	00000000 signal.c
00000000 l    df *ABS*	00000000 signalr.c
00000000 l    df *ABS*	00000000 snprintf.c
00000000 l    df *ABS*	00000000 sprintf.c
00000000 l    df *ABS*	00000000 strchr.c
00000000 l    df *ABS*	00000000 strcmp.c
00000000 l    df *ABS*	00000000 strerror.c
00000000 l    df *ABS*	00000000 strlen.c
00000000 l    df *ABS*	00000000 strncmp.c
00000000 l    df *ABS*	00000000 strtol.c
00000000 l    df *ABS*	00000000 strtoull.c
00000000 l    df *ABS*	00000000 strtoull_r.c
00000000 l    df *ABS*	00000000 u_strerr.c
00000000 l    df *ABS*	00000000 vfprintf.c
0003ce18 l     F .text	00000034 __sprint_r
0004a976 l     O .rodata	00000010 blanks.3515
0004a986 l     O .rodata	00000010 zeroes.3516
00000000 l    df *ABS*	00000000 wbuf.c
00000000 l    df *ABS*	00000000 wsetup.c
00000000 l    df *ABS*	00000000 __atexit.c
00000000 l    df *ABS*	00000000 ctype_.c
0004aa97 l     O .rodata	00000180 _ctype_b
00000000 l    df *ABS*	00000000 dtoa.c
0003f064 l     F .text	00000208 quorem
00000000 l    df *ABS*	00000000 fflush.c
00000000 l    df *ABS*	00000000 findfp.c
00040aa0 l     F .text	00000008 __fp_lock
00040aa8 l     F .text	00000008 __fp_unlock
00000000 l    df *ABS*	00000000 mallocr.c
00000000 l    df *ABS*	00000000 fwalk.c
00000000 l    df *ABS*	00000000 int_errno.c
00000000 l    df *ABS*	00000000 locale.c
0004ac34 l     O .rodata	00000030 lconv
00000000 l    df *ABS*	00000000 makebuf.c
00000000 l    df *ABS*	00000000 mprec.c
0004ad7c l     O .rodata	0000000c p05.2435
00000000 l    df *ABS*	00000000 s_isinfd.c
00000000 l    df *ABS*	00000000 s_isnand.c
00000000 l    df *ABS*	00000000 stdio.c
00000000 l    df *ABS*	00000000 writer.c
00000000 l    df *ABS*	00000000 mallocr.c
00000000 l    df *ABS*	00000000 closer.c
00000000 l    df *ABS*	00000000 fclose.c
00000000 l    df *ABS*	00000000 fstatr.c
00000000 l    df *ABS*	00000000 isattyr.c
00000000 l    df *ABS*	00000000 lseekr.c
00000000 l    df *ABS*	00000000 readr.c
00000000 l    df *ABS*	00000000 libgcc2.c
00000000 l    df *ABS*	00000000 libgcc2.c
00000000 l    df *ABS*	00000000 fp-bit.c
00000000 l    df *ABS*	00000000 fp-bit.c
00000000 l    df *ABS*	00000000 fp-bit.c
00000000 l    df *ABS*	00000000 fp-bit.c
00000000 l    df *ABS*	00000000 alt_close.c
00000000 l    df *ABS*	00000000 alt_dcache_flush.c
00000000 l    df *ABS*	00000000 alt_dev.c
00043920 l     F .text	00000008 alt_dev_null_write
00000000 l    df *ABS*	00000000 alt_errno.c
00000000 l    df *ABS*	00000000 alt_exit.c
00000000 l    df *ABS*	00000000 alt_flash_dev.c
00000000 l    df *ABS*	00000000 alt_fstat.c
00000000 l    df *ABS*	00000000 alt_getpid.c
00000000 l    df *ABS*	00000000 alt_isatty.c
00000000 l    df *ABS*	00000000 alt_kill.c
00000000 l    df *ABS*	00000000 alt_lseek.c
00000000 l    df *ABS*	00000000 alt_main.c
00000000 l    df *ABS*	00000000 alt_malloc_lock.c
00000000 l    df *ABS*	00000000 alt_read.c
00000000 l    df *ABS*	00000000 alt_release_fd.c
00000000 l    df *ABS*	00000000 alt_sbrk.c
0004cdb8 l     O .rwdata	00000004 heap_end
00000000 l    df *ABS*	00000000 alt_usleep.c
00000000 l    df *ABS*	00000000 alt_write.c
00000000 l    df *ABS*	00000000 alt_sys_init.c
0004bb60 l     O .rwdata	000000c8 epcs_controller
0004bc28 l     O .rwdata	00001060 jtag_uart
0004cc88 l     O .rwdata	00000030 sgdma_rx
0004ccb8 l     O .rwdata	00000030 sgdma_tx
0004cce8 l     O .rwdata	00000030 usb_tx_dma
00000000 l    df *ABS*	00000000 altera_avalon_epcs_flash_controller.c
00000000 l    df *ABS*	00000000 altera_avalon_jtag_uart_fd.c
00000000 l    df *ABS*	00000000 altera_avalon_jtag_uart_init.c
000445f8 l     F .text	0000005c altera_avalon_jtag_uart_timeout
00044654 l     F .text	00000104 altera_avalon_jtag_uart_irq
00000000 l    df *ABS*	00000000 altera_avalon_jtag_uart_ioctl.c
00000000 l    df *ABS*	00000000 altera_avalon_jtag_uart_read.c
00000000 l    df *ABS*	00000000 altera_avalon_jtag_uart_write.c
00000000 l    df *ABS*	00000000 altera_avalon_sgdma.c
00044b50 l     F .text	0000005c alt_avalon_sgdma_irq
00000000 l    df *ABS*	00000000 altera_avalon_timer_sc.c
0004576c l     F .text	0000003c alt_avalon_timer_sc_irq
00000000 l    df *ABS*	00000000 epcs_commands.c
00000000 l    df *ABS*	00000000 alt_alarm_start.c
00000000 l    df *ABS*	00000000 alt_busy_sleep.c
00000000 l    df *ABS*	00000000 alt_dev_llist_insert.c
00000000 l    df *ABS*	00000000 alt_do_ctors.c
00000000 l    df *ABS*	00000000 alt_do_dtors.c
00000000 l    df *ABS*	00000000 alt_find_dev.c
00000000 l    df *ABS*	00000000 alt_iic.c
00000000 l    df *ABS*	00000000 alt_iic_isr_register.c
00000000 l    df *ABS*	00000000 alt_io_redirect.c
00000000 l    df *ABS*	00000000 alt_irq_vars.c
00000000 l    df *ABS*	00000000 alt_open.c
00000000 l    df *ABS*	00000000 alt_remap_uncached.c
00000000 l    df *ABS*	00000000 alt_tick.c
00000000 l    df *ABS*	00000000 altera_nios2_qsys_irq.c
00000000 l    df *ABS*	00000000 altera_avalon_spi.c
00000000 l    df *ABS*	00000000 alt_find_file.c
00000000 l    df *ABS*	00000000 alt_get_fd.c
00000000 l    df *ABS*	00000000 exit.c
00000000 l    df *ABS*	00000000 __call_atexit.c
00000000 l    df *ABS*	00000000 
08402080 g     O .descriptor_memory	00000080 descriptor
0002ab68 g     F .text	00000040 __cxa_free_exception
000288c0 g     F .text	000000e8 _ZN4CDma16CreateDescriptorEv
0002f0a0  w    F .text	0000003c _ZNSsC1IN9__gnu_cxx17__normal_iteratorIPcSsEEEET_S4_RKSaIcE
0002f270  w    F .text	00000068 _ZNSsC2ERKSsjj
0003b1e0 g     F .text	0000001c putchar
00015f34 g     F .text	00000064 _ZN10CTestboard8Daq_StopEh
0002aa48 g     F .text	00000008 _ZNKSt9type_info15__is_function_pEv
0004239c g     F .text	00000074 _mprec_log10
0002286c g     F .text	000000c0 _Z20rpc__Daq_FillLevel$CR10rpcMessage
0002a194 g     F .text	0000001c _ZSt10unexpectedv
00022b74 g     F .text	000000b8 _Z13rpc___GetID$SR10rpcMessage
000443e8 g     F .text	00000038 alt_epcs_flash_get_info
0002af1c g     F .text	00000038 _ZSt18__throw_bad_typeidv
0004248c g     F .text	00000084 __any_on
000429f8 g     F .text	00000064 _isatty_r
0004ac64 g     O .rodata	00000028 __mprec_tinytens
0000583c g     F .text	000000b0 f_gets
00038404 g     F .text	00000034 _ZNSt14overflow_errorC1ERKSs
00043c38 g     F .text	00000060 alt_main
000154fc g     F .text	00000014 _ZN10CTestboard8mod_AddrEh
00039c28 g     F .text	00000044 __ashldi3
00015ed0 g     F .text	00000064 _ZN10CTestboard9Daq_StartEh
0003b1fc g     F .text	00000084 _puts_r
0005e430 g     O .bss	00000100 alt_irq
0002fba8 g     F .text	00000010 _ZN10__cxxabiv115__forced_unwindD1Ev
0004cd5c  w    O .rwdata	00000004 _ZNSs4nposE
00011e58 g     F .text	0000001c _ZN10CTestboard9SetClock_Eh
0001d508  w    F .text	00000010 _ZNSt6vectorItSaItEED2Ev
0002ac9c g     F .text	00000098 _Znaj
00042a5c g     F .text	0000006c _lseek_r
0000b44c g     F .text	00000874 _ZN10CTestboard29LoopSingleRocAllPixelsDacScanEhtthhhh
0000256c g     F .text	0000001c get_fat
0002d738  w    F .text	000000f4 _ZNSs6assignEPKcj
0000f198 g     F .text	0000018c _ZN12CFlashMemory10WriteFlashEv
0002c920  w    F .text	00000084 _ZNKSs13find_first_ofEPKcjj
0003944c g     F .text	00000020 _Unwind_GetIPInfo
00022d9c g     F .text	000000c0 _Z21rpc__IsClockPresent$bR10rpcMessage
0002f768  w    F .text	00000018 _ZNSs7replaceEN9__gnu_cxx17__normal_iteratorIPcSsEES2_PKcj
00037ab0 g     F .text	00000140 __cxa_demangle
00043688 g     F .text	0000005c __eqdf2
00011c2c g     F .text	0000008c _ZN10CTestboard11UpgradeExecEt
00048e28  w    O .rodata	00000014 _ZTVSt17bad_function_call
0002a44c g     F .text	00000088 __cxa_rethrow
000393e0 g     F .text	0000000c _Unwind_SjLj_Unregister
0002c368  w    F .text	00000018 _ZNKSs6rbeginEv
0002a1c4 g     F .text	00000014 _ZSt14set_unexpectedPFvvE
0002d104  w    F .text	000000b8 _ZNKSs7compareEjjPKc
0002efdc  w    F .text	000000c4 _ZNSs12_S_constructIN9__gnu_cxx17__normal_iteratorIPcSsEEEES2_T_S4_RKSaIcESt20forward_iterator_tag
0002c294  w    F .text	00000020 _ZNSs13_S_copy_charsEPcN9__gnu_cxx17__normal_iteratorIS_SsEES2_
0003943c g     F .text	00000010 _Unwind_GetIP
00024288 g     F .text	00000168 _Z24rpc__UpgradeErrorMsg$v4cR10rpcMessage
0005e530 g       *ABS*	00000000 __alt_heap_start
00020e7c g     F .text	00000068 _Z16rpc__SetClock$vCR10rpcMessage
000287e4 g     F .text	000000dc _ZN4CDmaC1Ev
0002750c g     F .text	00000178 _Z23rpc__SetTrimValues$bC1CR10rpcMessage
000382c0 g     F .text	00000034 _ZNSt12length_errorC1ERKSs
0003bbd8 g     F .text	00000068 _kill_r
0002c1b4  w    F .text	0000003c _ZNKSs15_M_check_lengthEjjPKc
0002e070  w    F .text	00000074 _ZNSs5beginEv
00037c7c g     F .text	00000014 _ZNSt9bad_allocD2Ev
0003aff0 g     F .text	0000003c printf
00011818 g     F .text	00000208 _ZN10CTestboard7WelcomeEv
0002c3c0  w    F .text	00000010 _ZNKSs5crendEv
0001243c g     F .text	00000498 _ZN10CTestboard3PonEv
000059d8 g     F .text	00000bd8 f_printf
00044c3c g     F .text	00000084 alt_avalon_sgdma_do_sync_transfer
0002df74  w    F .text	00000010 _ZNSs6insertEN9__gnu_cxx17__normal_iteratorIPcSsEESt16initializer_listIcE
0001143c g     F .text	00000008 _ZN10CTestboard13GetRpcVersionEv
0002dd18  w    F .text	000001c4 _ZNSs6insertEjPKcj
0003b978 g     F .text	00000088 _signal_r
00049f88  w    O .rodata	00000013 _ZTSSt14overflow_error
0002c44c  w    F .text	00000014 _ZNKSs4backEv
00042650 g     F .text	0000005c __sseek
00040b30 g     F .text	0000010c __sinit
00020e0c g     F .text	00000070 _Z20rpc__Sig_SetMode$vCCR10rpcMessage
0003ec68 g     F .text	0000013c __swbuf_r
00013a3c g     F .text	00000144 _ZN10CTestboardC2Ev
0002ac44 g     F .text	00000058 __cxa_free_dependent_exception
0002a764 g     F .text	00000014 _ZN10__cxxabiv120__si_class_type_infoD2Ev
000412e4 g     F .text	0000009c _setlocale_r
00048988  w    O .rodata	00000025 _ZTSN10__cxxabiv120__si_class_type_infoE
00040abc g     F .text	00000064 __sfmoreglue
00011124 g     F .text	000000ec _ZN10CTestboard13Ethernet_SendERSs
0002027c g     F .text	00000058 _Z18rpc__Sig_SetLVDS$vR10rpcMessage
00043c9c g     F .text	00000004 __malloc_unlock
00024558 g     F .text	00000168 _Z16rpc__GetInfo$v4cR10rpcMessage
0002bdb8 g     F .text	00000014 _ZNSt12future_errorD1Ev
0002053c g     F .text	00000068 _Z20rpc__roc_Col_Mask$vCR10rpcMessage
0002fba8 g     F .text	00000010 _ZN10__cxxabiv115__forced_unwindD2Ev
00010ba8 g     F .text	00000034 _Z13I2C_Main_Initv
0002d1bc  w    F .text	00000084 _ZNKSs7compareEjjPKcj
0002b954 g     F .text	00000138 _ZSt20__throw_future_errori
0001ffbc g     F .text	00000058 _Z14rpc__Pg_Stop$vR10rpcMessage
000280a4  w    F .text	00000010 _ZNSt6vectorIhSaIhEED2Ev
0002f854  w    F .text	00000064 _ZNSs7replaceEN9__gnu_cxx17__normal_iteratorIPcSsEES2_PKc
0002a350 g     F .text	00000024 _ZSt18uncaught_exceptionv
00049fbc  w    O .rodata	0000000c _ZTISt15underflow_error
0001db5c  w    F .text	000001a8 _ZNSt6vectorIiSaIiEE13_M_insert_auxEN9__gnu_cxx17__normal_iteratorIPiS1_EERKi
0003bfe4 g     F .text	00000664 strerror
0002d3f4  w    F .text	00000040 _ZNSsC1EjcRKSaIcE
00014480 g     F .text	000000a0 _ZN10CTestboard6SetDacEii
0002d4a8  w    F .text	00000038 _ZNSsD2Ev
0001fdac g     F .text	00000058 _Z20rpc__roc_Chip_Mask$vR10rpcMessage
00028e58 g     F .text	00000024 __cxa_deleted_virtual
00007f94 g     F .text	00000014 _ZN10CTestboard19SetLoopTriggerDelayEt
00045580 g     F .text	00000168 alt_avalon_sgdma_construct_descriptor_burst
000266ac g     F .text	0000023c _Z48rpc__LoopMultiRocAllPixelsDacDacScan$b1CSSCCCCCCR10rpcMessage
0002ec28  w    F .text	00000098 _ZNSspLEc
000215a0 g     F .text	00000074 _Z14rpc___SetVA$vSR10rpcMessage
0002bac4 g     F .text	000000a8 _ZSt19__throw_regex_errorNSt15regex_constants10error_typeE
0003adc0 g     F .text	00000128 memmove
0002006c g     F .text	00000058 _Z14rpc__ResetOn$vR10rpcMessage
00011f30 g     F .text	00000168 _ZN10CTestboard12Sig_SetDelayEhtc
00023ef4 g     F .text	00000160 _Z20rpc__UpgradeData$C3cR10rpcMessage
000117f8 g     F .text	00000010 _ZN10CTestboard12GetHWVersionERSs
00021248 g     F .text	00000074 _Z32rpc__Daq_Select_Datagenerator$vSR10rpcMessage
0002fb88 g     F .text	00000010 _ZNSt9exceptionD2Ev
00040b20 g     F .text	00000010 _cleanup
0002f780  w    F .text	00000050 _ZNSs7replaceEjjPKc
0003bce8 g     F .text	000000ac snprintf
00010960  w    F .text	000000d0 _ZN10DTB_CONFIGD2Ev
00041568 g     F .text	000000a8 _Balloc
0002c804  w    F .text	0000007c _ZNKSs5rfindERKSsj
0000f130 g     F .text	00000068 _ZN12CFlashMemory3SetEmmPm
000261e4 g     F .text	00000264 _Z49rpc__LoopMultiRocOnePixelDacDacScan$b1CCCSSCCCCCCR10rpcMessage
0002c2b4  w    F .text	00000020 _ZNSs13_S_copy_charsEPcN9__gnu_cxx17__normal_iteratorIPKcSsEES4_
0001221c g     F .text	00000044 _ZN10CTestboard13Sig_SetOffsetEh
0000e6ac g     F .text	00000060 _ZN10CTestboard32LoopSingleRocAllPixelsDacDacScanEhtthhhhhh
0002dedc  w    F .text	00000044 _ZNSs6insertEjPKc
00049f2c  w    O .rodata	00000011 _ZTSSt12out_of_range
00011e40 g     F .text	00000018 _ZN10CTestboard14IsClockPresentEv
00049e54  w    O .rodata	0000000c _ZTISt8bad_cast
0002d8ec  w    F .text	0000003c _ZNSsaSEPKc
00010a60 g     F .text	0000002c _ZN4CUSB5FlushEv
0002b758 g     F .text	000000c0 _ZSt19__throw_ios_failurePKc
00043740 g     F .text	00000064 __gtdf2
00048ee8  w    O .rodata	00000014 _ZTVSt13bad_exception
00000000  w      *UND*	00000000 __errno
00045838 g     F .text	000001d0 epcs_sector_erase
0002bcec g     F .text	00000014 _ZNSt12system_errorD2Ev
00038144 g     F .text	0000002c _ZNSt14overflow_errorD0Ev
00048df0  w    O .rodata	00000014 _ZTVSt11regex_error
00020d9c g     F .text	00000070 _Z20rpc__Sig_SetPRBS$vCCR10rpcMessage
08000000 g     F .entry	00000000 __reset
0001f354 g     F .text	000000a4 _Z16rpc_GetRpcCallIdRSs
0004cd54  w    O .rwdata	00000001 _ZNSs4_Rep11_S_terminalE
0001ec64 g     F .text	000000a4 _Z10PixelFiredRKSt6vectorItSaItEERj
000289a8 g     F .text	000000cc _ZN4CDma20DeleteAllDescriptorsEv
0000d1f0 g     F .text	00000ac8 _ZN10CTestboard30LoopMultiRocOnePixelDacDacScanERSt6vectorIhSaIhEEhhtthhhhhhhh
00038130 g     F .text	00000014 _ZNSt14overflow_errorD2Ev
00015104 g     F .text	000000b4 _ZN10CTestboard14roc_Col_EnableEhb
00022c2c g     F .text	000000b8 _Z13rpc___GetVA$SR10rpcMessage
00039488 g     F .text	00000008 _Unwind_GetRegionStart
0001603c g     F .text	000001a0 _ZN10CTestboard8Daq_ReadER8HWvectorItEjRjh
0002c460  w    F .text	0000009c _ZNKSs4copyEPcjj
000230b0 g     F .text	000000b8 _Z19rpc__GetSWVersion$SR10rpcMessage
00044fc0 g     F .text	000000d4 alt_avalon_sgdma_construct_stream_to_mem_desc_burst
000217a4 g     F .text	00000074 _Z14rpc__uDelay$vSR10rpcMessage
00037f5c g     F .text	00000014 _ZNSt12out_of_rangeD2Ev
00042990 g     F .text	00000068 _fstat_r
0002bcec g     F .text	00000014 _ZNSt12system_errorD1Ev
00011490 g     F .text	00000010 _ZN10CTestboard15GetRpcCallCountEv
0002bdcc g     F .text	0000002c _ZNSt12future_errorD0Ev
0000f374 g     F .text	000000b8 _ZN14CSRecordReader7GetHex1ERPKc
00015d8c g     F .text	00000144 _ZN10CTestboard9Daq_CloseEh
0002d490  w    F .text	00000018 _ZNSs4_Rep10_M_disposeERKSaIcE
00027e8c g     F .text	000001f8 _Z17rpc__TrimChip$s1sR10rpcMessage
0004ce40 g     O .bss	00000004 errno
00012124 g     F .text	00000064 _ZN10CTestboard11Sig_SetPRBSEhh
0002d9e0  w    F .text	00000020 _ZNSs7replaceEN9__gnu_cxx17__normal_iteratorIPcSsEES2_jc
0004d0b8 g     O .bss	000104c0 tb
00006fbc g     F .text	000003d0 ffs_DiskIOWrite
00016d9c g     F .text	00000528 _ZN10CTestboard10TriggerRowEssRSt6vectorIsSaIsEEs
0002ecf8  w    F .text	00000070 _ZNSsC1ERKSs
0002d09c  w    F .text	00000068 _ZNKSs7compareEPKc
000204cc g     F .text	00000070 _Z17rpc__tbm_Addr$vCCR10rpcMessage
000277ec g     F .text	00000258 _Z21rpc__VectorTest$v1S2SR10rpcMessage
00025b80 g     F .text	00000248 _Z26rpc__CalibrateMap$ss2s2i2IR10rpcMessage
000214b8 g     F .text	00000074 _Z14rpc___SetIA$vSR10rpcMessage
0003965c g     F .text	00000084 _Unwind_Backtrace
00016200 g     F .text	00000008 _ZN10CTestboard19Daq_Read_DeleteDataEji
0002fa0c g     F .text	00000014 _ZNSt11regex_errorD1Ev
0004ce68 g     O .bss	00000234 fatFs
00013b80 g     F .text	000000d8 _ZN10CTestboard6_SetVDEt
0004ce54 g     O .bss	00000004 alt_argv
0002d67c  w    F .text	000000bc _ZNSs15_M_replace_safeEjjPKcj
0002bd4c g     F .text	00000030 _ZNKSt10error_code23default_error_conditionEv
00054d18 g       *ABS*	00000000 _gp
00043dfc g     F .text	00000004 usleep
00011444 g     F .text	00000008 _ZN10CTestboard12GetRpcCallIdERSs
00037cdc g     F .text	0000002c _ZNSt10bad_typeidD0Ev
0000aa7c g     F .text	00000980 _ZN10CTestboard27LoopMultiRocOnePixelDacScanERSt6vectorIhSaIhEEhhtthhhh
00011cd8 g     F .text	00000044 _ZN10CTestboard6mDelayEt
00038130 g     F .text	00000014 _ZNSt14overflow_errorD1Ev
00015568 g     F .text	000000d8 _ZN10CTestboard10tbm_GetRawEhRj
08000000 g       *ABS*	00000000 __alt_mem_epcs_controller
00037d28 g     F .text	0000002c _ZNSt8bad_castD0Ev
00043a18 g     F .text	00000008 getpid
00003558 g     F .text	00000368 f_getcwd
000219c8 g     F .text	00000160 _Z51rpc__LoopSingleRocOnePixelDacDacScan$bCCCSSCCCCCCCCR10rpcMessage
00010eac  w    F .text	00000010 _ZN6CRpcIoD2Ev
000208ac g     F .text	00000068 _Z16rpc__Daq_Stop$vCR10rpcMessage
0002d254  w    F .text	0000000c _ZNKSs4_Rep12_M_is_leakedEv
00021084 g     F .text	00000070 _Z23rpc__roc_Col_Enable$vCbR10rpcMessage
00029e68 g     F .text	00000238 __cxa_call_unexpected
0002a1d8 g     F .text	00000008 __cxa_get_exception_ptr
0002f950  w    F .text	0000003c _ZNSsC2ESt16initializer_listIcERKSaIcE
0004b9b8 g     O .rwdata	00000180 alt_fd_list
00037f9c g     F .text	00000014 _ZNSt12length_errorD2Ev
000474f8 g     O .rodata	00000018 DAQ_DMA_BASE
00016310 g     F .text	0000006c _ZN10CTestboard15Daq_DeselectAllEv
00022340 g     F .text	00000110 _Z42rpc__LoopSingleRocOnePixelCalibrate$bCCCSSR10rpcMessage
000147e4 g     F .text	00000024 _ZN10CTestboard8ResetOffEv
0004a018  w    O .rodata	00000014 _ZTVSt12out_of_range
0003b1d8 g     F .text	00000008 _putchar_r
00039588 g     F .text	0000003c _Unwind_SjLj_ForcedUnwind
00025f58 g     F .text	0000028c _Z51rpc__LoopMultiRocOnePixelDacDacScan$b1CCCSSCCCCCCCCR10rpcMessage
00045c04 g     F .text	0000009c epcs_write_status_register
0001f714 g     F .text	00000214 _ZN10rpcMessage7RecvDatEv
0001464c g     F .text	0000012c _ZN10CTestboard7ReadADCEh
0001a978 g     F .text	0000079c _ZN10CTestboard2PHEiiis
0000738c g     F .text	0000072c ffs_DiskIOIoctl
00039408 g     F .text	00000018 _Unwind_GetCFA
0002a1b0 g     F .text	00000014 _ZSt13set_terminatePFvvE
00046268 g     F .text	00000094 alt_find_dev
00013e5c g     F .text	00000130 _ZN10CTestboard6_GetVAEv
0003acc8 g     F .text	000000f8 memcpy
0002c328  w    F .text	00000010 _ZNSsC2Ev
000168ec g     F .text	0000023c _ZN10CTestboard12Daq_Disable2Ev
0001240c g     F .text	00000030 _ZN10CTestboard19Sig_SetRdaToutDelayEh
0002aba8 g     F .text	0000009c __cxa_allocate_dependent_exception
00021da0 g     F .text	00000124 _Z48rpc__LoopSingleRocAllPixelsDacDacScan$bCSSCCCCCCR10rpcMessage
0002f914  w    F .text	0000003c _ZNSsC1IPKcEET_S2_RKSaIcE
00040ab0 g     F .text	0000000c _cleanup_r
00028ef8 g     F .text	00000018 _ZNK10__cxxabiv117__class_type_info20__do_find_public_srcEiPKvPKS0_S2_
000164c4 g     F .text	00000048 _ZN10CTestboard18Daq_Deser400_ResetEh
00038df4 g     F .text	000000d4 __floatsidf
00046400 g     F .text	00000104 alt_io_redirect
000437a4 g     F .text	0000005c __ltdf2
0004a040  w    O .rodata	00000014 _ZTVSt11range_error
0003805c g     F .text	00000068 _ZNSt13runtime_errorD2Ev
0002b3c8 g     F .text	000000e4 _ZSt21__throw_runtime_errorPKc
00046e24 g       *ABS*	00000000 __DTOR_END__
000255f0 g     F .text	00000304 _Z39rpc__CalibrateDacDacScan$csssssssss2s2iR10rpcMessage
00010244 g     F .text	00000070 _ZN14CSRecordReader9TranslateEPKcR12CFlashMemory
00049ff0  w    O .rodata	00000014 _ZTVSt16invalid_argument
0002c880  w    F .text	00000044 _ZNKSs5rfindEPKcj
000381b0 g     F .text	000000a8 _ZNSt11logic_errorC2ERKSs
00028f10 g     F .text	00000014 _ZN10__cxxabiv117__class_type_infoD1Ev
0002ca64  w    F .text	00000014 _ZNKSs13find_first_ofEcj
0004cdf4 g     O .bss	00000004 rx_frame_counter
0004ce00 g     O .bss	00000004 flash_error
0002f9fc  w    F .text	00000010 _ZN9__gnu_cxxeqIPKcSsEEbRKNS_17__normal_iteratorIT_T0_EES8_
0003b280 g     F .text	00000014 puts
0002ed68  w    F .text	000000e8 _ZStplIcSt11char_traitsIcESaIcEESbIT_T0_T1_EPKS3_RKS6_
00011b18 g     F .text	000000b8 _ZN10CTestboard11UpgradeDataERSs
000383d0 g     F .text	00000034 _ZNSt11range_errorC2ERKSs
0002bd2c g     F .text	00000010 _ZNSt14error_categoryC2Ev
0002c594  w    F .text	000000c8 _ZNKSs4findEPKcjj
00044474 g     F .text	000000d4 alt_epcs_flash_write_block
000157a8 g     F .text	0000005c _ZN10CTestboard8LLD_ReadEh
000422f8 g     F .text	000000a4 __ratio
0002e530  w    F .text	00000008 _ZNSsaSERKSs
00020ee4 g     F .text	00000068 _Z22rpc__SetClockSource$vCR10rpcMessage
00049f40  w    O .rodata	0000000c _ZTISt12out_of_range
00004cf4 g     F .text	00000368 f_rename
000451d4 g     F .text	00000130 alt_avalon_sgdma_construct_mem_to_stream_desc_burst
00020a4c g     F .text	00000070 _Z23rpc__SignalProbeADC$vCCR10rpcMessage
0002f40c  w    F .text	0000003c _ZNSsC2EPKcjRKSaIcE
00024eec g     F .text	000000cc _Z22rpc__GetRpcCallCount$iR10rpcMessage
00044894 g     F .text	00000134 altera_avalon_jtag_uart_read
0003a3a8 g     F .text	00000014 malloc
0003afc4 g     F .text	0000002c _printf_r
000391d8 g     F .text	00000008 __udivsi3
0002d870  w    F .text	00000050 _ZNSs6assignERKSsjj
00043a20 g     F .text	0000008c isatty
0003ba00 g     F .text	000000d0 _raise_r
00016b28 g     F .text	000001a0 _ZN10CTestboard8TrimChipERSt6vectorIsSaIsEE
0002c1f0  w    F .text	0000001c _ZNKSs8_M_limitEjj
00011608 g     F .text	000001e0 _ZN10CTestboard7GetInfoERSs
0004acb4 g     O .rodata	000000c8 __mprec_tens
0002b590 g     F .text	000000e4 _ZSt22__throw_overflow_errorPKc
00020014 g     F .text	00000058 _Z15rpc__ResetOff$vR10rpcMessage
000382f4 g     F .text	00000034 _ZNSt12out_of_rangeC2ERKSs
00014b8c g     F .text	00000018 _ZN10CTestboard10Pg_TriggerEv
0002c264  w    F .text	00000030 _ZNSs9_M_assignEPcjc
00024a60 g     F .text	00000108 _Z17rpc__Daq_Open$IICR10rpcMessage
00041380 g     F .text	0000000c __locale_charset
000034a0 g     F .text	000000b8 f_chdir
00026448 g     F .text	00000264 _Z50rpc__LoopMultiRocAllPixelsDacDacScan$b1CSSCCCCCCCCR10rpcMessage
0001eefc g     F .text	000000e0 _Z9FindLevelv
000232d8 g     F .text	000000b8 _Z20rpc__GetRpcVersion$SR10rpcMessage
0001b2c0 g     F .text	000002dc _ZN10CTestboard17CalibrateReadoutsEsRsRi
0003846c g     F .text	00000084 __fixunsdfsi
0002bd3c g     F .text	00000008 _ZSt15system_categoryv
0002c3d0  w    F .text	0000000c _ZNKSs4sizeEv
00027684 g     F .text	00000168 _Z24rpc__SetI2CAddresses$b1CR10rpcMessage
0000efec g     F .text	00000070 _ZN10CTestboard31LoopSingleRocOnePixelDacDacScanEhhhtthhhhhh
00010bdc g     F .text	00000034 _Z17I2C_External_Initv
0004ce3c g     O .bss	00000004 __malloc_top_pad
0003bc40 g     F .text	00000004 _getpid_r
00010aac g     F .text	00000008 _ZN4CUSB5ResetEv
000040e8 g     F .text	00000280 f_truncate
0004cd94 g     O .rwdata	00000004 __mb_cur_max
0002e8fc  w    F .text	0000003c _ZNSs6appendEPKc
00009384 g     F .text	00000790 _ZN10CTestboard31LoopSingleRocAllPixelsCalibrateEhtt
0004138c g     F .text	0000000c _localeconv_r
0003ca7c g     F .text	00000394 _strtoull_r
00041968 g     F .text	0000003c __i2b
00039de4 g     F .text	000004e4 __sfvwrite_r
00028fd0 g     F .text	000000bc _ZNK10__cxxabiv117__class_type_info10__do_catchEPKSt9type_infoPPvj
0004532c g     F .text	0000001c alt_avalon_sgdma_stop
0003bad0 g     F .text	000000b4 __sigtramp_r
0002c16c  w    F .text	00000008 _ZNKSs9_M_ibeginEv
00020844 g     F .text	00000068 _Z27rpc__Daq_Select_Deser160$vCR10rpcMessage
00038328 g     F .text	000000a8 _ZNSt13runtime_errorC2ERKSs
0002ca78  w    F .text	00000088 _ZNKSs12find_last_ofEPKcjj
00014778 g     F .text	00000024 _ZN10CTestboard4HVonEv
0003b8ac g     F .text	00000064 _sbrk_r
0002f208  w    F .text	00000068 _ZNSsC2ERKSsjjRKSaIcE
0002e7d4  w    F .text	0000000c _ZNSs6resizeEj
00022ce4 g     F .text	000000b8 _Z13rpc___GetVD$SR10rpcMessage
00022118 g     F .text	00000118 _Z43rpc__LoopSingleRocAllPixelsDacScan$bCSSCCCCR10rpcMessage
000246c0 g     F .text	00000120 _Z27rpc__test_pixel_address$biiR10rpcMessage
00020bf4 g     F .text	00000068 _Z21rpc__SignalProbeD1$vCR10rpcMessage
000489f8  w    O .rodata	00000020 _ZTVSt9type_info
00007f78 g     F .text	0000001c _ZN10CTestboard13CalibratedDACEj
00049ee8  w    O .rodata	00000015 _ZTSSt16invalid_argument
0002aeac g     F .text	00000038 _ZSt17__throw_bad_allocv
00042ac8 g     F .text	0000006c _read_r
0002fbc8 g     F .text	0000000c _ZNKSt9exception4whatEv
00010f90 g     F .text	00000070 _Z15rx_ethernet_isrPv
0002df20  w    F .text	00000054 _ZNSs6insertEjRKSsjj
000438e0 g     F .text	00000040 alt_dcache_flush
0001423c g     F .text	00000130 _ZN10CTestboard6_GetIAEv
0004b9ac g     O .rwdata	0000000c __lc_ctype
00011534 g     F .text	00000088 _ZN10CTestboard14GetRpcCallHashEv
00007b64 g     F .text	0000010c _ZN10CTestboard19LoopInterruptStatusEv
0004cd98 g     O .rwdata	00000004 alt_max_fd
00039a10 g     F .text	00000104 __unpack_d
00042840 g     F .text	0000013c _fclose_r
00010d6c g     F .text	00000074 _Z11Adv3224Initv
00048de4  w    O .rodata	0000000c _ZTISt11regex_error
00011ea4 g     F .text	0000008c _ZN10CTestboard15SetClockStretchEhtt
0000e70c g     F .text	000008e0 _ZN10CTestboard31LoopSingleRocOnePixelDacDacScanEhhhtthhhhhhhh
00049dd8  w    O .rodata	0000000c _ZTISt9bad_alloc
0002c160  w    F .text	0000000c _ZNKSs6_M_repEv
00040a70 g     F .text	00000030 fflush
0002bd44 g     F .text	00000008 _ZSt16generic_categoryv
0004ce38 g     O .bss	00000004 __malloc_max_sbrked_mem
0000f948 g     F .text	0000064c _ZN14CSRecordReader7GetHex8ERPKc
00020704 g     F .text	00000070 _Z19rpc__roc_SetDAC$vCCR10rpcMessage
0002dc64  w    F .text	00000054 _ZNSs5eraseEN9__gnu_cxx17__normal_iteratorIPcSsEE
0002e490  w    F .text	000000a0 _ZNSs6assignERKSs
00010ebc  w    F .text	00000010 _ZN4CUSBD1Ev
0002097c g     F .text	00000068 _Z17rpc__Daq_Close$vCR10rpcMessage
00027a44 g     F .text	000001b4 _Z21rpc__Pg_SetCmdAll$v1SR10rpcMessage
00048e1c  w    O .rodata	0000000c _ZTISt17bad_function_call
0002c52c  w    F .text	0000002c _ZNSs6assignEOSs
00038844 g     F .text	00000054 __adddf3
0001479c g     F .text	00000024 _ZN10CTestboard5HVoffEv
0004cd1c  w    O .rwdata	00000006 _ZTS4CUSB
000489bc  w    O .rodata	0000002c _ZTVN10__cxxabiv120__si_class_type_infoE
00044420 g     F .text	00000054 alt_epcs_flash_erase_block
0002d4a8  w    F .text	00000038 _ZNSsD1Ev
0004206c g     F .text	00000148 __b2d
000202d4 g     F .text	00000058 _Z14rpc__Welcome$vR10rpcMessage
00037d14 g     F .text	00000014 _ZNSt8bad_castD1Ev
000430fc g     F .text	0000058c __umoddi3
0002db68  w    F .text	00000040 _ZNSs6insertEN9__gnu_cxx17__normal_iteratorIPcSsEEjc
00043bb4 g     F .text	00000084 lseek
0002e11c  w    F .text	00000074 _ZNSs3endEv
00049fc8  w    O .rodata	00000014 _ZTVSt11logic_error
00028f50 g     F .text	00000080 _ZNK10__cxxabiv117__class_type_info11__do_upcastEPKS0_PKvRNS0_15__upcast_resultE
0002a374 g     F .text	00000010 _ZdlPv
00037c30 g     F .text	00000014 _ZN9__gnu_cxx20recursive_init_errorD1Ev
00037fb0 g     F .text	0000002c _ZNSt12length_errorD0Ev
0004cd80 g     O .rwdata	00000004 _global_impure_ptr
00011d1c g     F .text	00000124 _ZN10CTestboard14SetClockSourceEh
00045fc8 g     F .text	00000078 epcs_exit_4_bytes_mode
0000f324 g     F .text	00000050 _ZN14CSRecordReader9GetHeaderERPKc
0003b2b0 g     F .text	000005fc _realloc_r
00013f8c g     F .text	000000c0 _ZN10CTestboard6_SetIDEt
0005e530 g       *ABS*	00000000 __bss_end
00046398 g     F .text	00000068 alt_iic_isr_register
000115bc g     F .text	0000004c _ZN10CTestboard16GetHashForStringEPKc
00044bac g     F .text	00000090 alt_avalon_sgdma_do_async_transfer
000466dc g     F .text	000000f4 alt_tick
000393d0 g     F .text	00000010 _Unwind_SjLj_Register
08402000 g     O .descriptor_memory	00000020 rx_descriptor_end
00024fb8 g     F .text	000000cc _Z27rpc__Ethernet_RecvPackets$IR10rpcMessage
00042b34 g     F .text	000005c8 __udivdi3
0004a054  w    O .rodata	00000014 _ZTVSt14overflow_error
0001f3f8 g     F .text	0000004c _ZN10rpcMessage7SendCmdEv
0002b200 g     F .text	000000e4 _ZSt20__throw_length_errorPKc
0004ac8c g     O .rodata	00000028 __mprec_bigtens
0004174c g     F .text	00000104 __s2b
00048a3c  w    O .rodata	00000013 _ZTSSt14error_category
00039c6c g     F .text	00000018 abort
00007f50 g     F .text	00000028 _ZN10CTestboard11GetXtalkRowEhb
0001f928 g     F .text	00000334 _ZN10rpcMessage10RecvStringERSs
00038f9c g     F .text	0000011c __floatunsidf
0002c184  w    F .text	00000030 _ZNKSs8_M_checkEjPKc
000205a4 g     F .text	00000070 _Z21rpc__roc_Pix_Mask$vCCR10rpcMessage
0002e3bc  w    F .text	00000024 _ZNSs4_Rep10_M_refcopyEv
00041e0c g     F .text	00000058 __mcmp
0001fe04 g     F .text	00000058 _Z17rpc__roc_ClrCal$vR10rpcMessage
000106c4 g     F .text	0000029c _ZN10DTB_CONFIG4ReadEPKc
0004cd90 g     O .rwdata	00000004 __ctype_ptr
0002a298 g     F .text	000000b8 __cxa_end_catch
00023dd0 g     F .text	00000124 _Z22rpc__Ethernet_Send$v3cR10rpcMessage
0001d528  w    F .text	00000174 _ZNSt6vectorItSaItEEaSERKS1_
0002292c g     F .text	000000d0 _Z21rpc__Daq_FillLevel$CCR10rpcMessage
00040d48 g     F .text	00000018 __fp_lock_all
00004368 g     F .text	000002bc f_unlink
00021614 g     F .text	00000074 _Z14rpc___SetVD$vSR10rpcMessage
00018098 g     F .text	0000003c _ZN10CTestboard13CountReadoutsEii
00046380 g     F .text	00000018 alt_ic_irq_enabled
00008e08 g     F .text	0000057c _ZN10CTestboard29LoopMultiRocOnePixelCalibrateERSt6vectorIhSaIhEEhhtt
0002fb98 g     F .text	00000010 _ZNSt13bad_exceptionD2Ev
0001bb38 g     F .text	0000078c _ZN10CTestboard19CalibrateDacDacScanEsssssssssRSt6vectorIsSaIsEERS0_IiSaIiEE
0001410c g     F .text	00000130 _ZN10CTestboard6_GetIDEv
0002f950  w    F .text	0000003c _ZNSsC1ESt16initializer_listIcERKSaIcE
00010658 g     F .text	0000000c _ZN10DTB_CONFIG6GetULLEPci
00048a50  w    O .rodata	00000011 _ZTSSt12system_error
000466a8 g     F .text	00000034 alt_alarm_stop
0003ca34 g     F .text	00000024 strtol
0002d260  w    F .text	0000000c _ZNKSs4_Rep12_M_is_sharedEv
08402000 g       *ABS*	00000000 __alt_mem_descriptor_memory
0002c14c  w    F .text	00000008 _ZNKSs7_M_dataEv
0004ce5c g     O .bss	00000004 alt_irq_active
0002a164 g     F .text	0000001c _ZSt9terminatev
0004ada4 g     O .rwdata	00000400 tx_frame
000380f0 g     F .text	00000014 _ZNSt15underflow_errorD1Ev
00048bd4  w    O .rodata	00000011 _ZTSSt12future_error
0002b11c g     F .text	000000e4 _ZSt24__throw_invalid_argumentPKc
000001ec g     F .exceptions	00000064 alt_irq_handler
0002d834  w    F .text	0000003c _ZNSs6assignEPKc
0004bb38 g     O .rwdata	00000028 alt_dev_null
0002ecc0  w    F .text	00000038 _ZNSs4_Rep7_M_grabERKSaIcES2_
0001f064 g     F .text	00000180 _ZN10CTestboard12TestColPixelEhhbRSt6vectorIhSaIhEE
0002c444  w    F .text	00000008 _ZNKSs5frontEv
00037d54 g     F .text	00000008 _ZNKSt8ios_base7failure4whatEv
00037f30 g     F .text	0000002c _ZNSt11logic_errorD0Ev
0002f448  w    F .text	00000290 _ZNSs7replaceEjjPKcj
00022abc g     F .text	000000b8 _Z13rpc___GetIA$SR10rpcMessage
0002fbb8 g     F .text	00000010 _ZN10__cxxabiv119__foreign_exceptionD2Ev
000058ec g     F .text	00000048 f_putc
000243f0 g     F .text	00000168 _Z21rpc__GetHWVersion$v4cR10rpcMessage
00045348 g     F .text	0000002c alt_avalon_sgdma_check_descriptor_status
00048898  w    O .rodata	00000022 _ZTSN10__cxxabiv117__class_type_infoE
00005934 g     F .text	000000a4 f_puts
00041850 g     F .text	00000068 __hi0bits
0004cd60  w    O .rwdata	00000008 _ZTISt9exception
00038ec8 g     F .text	000000d4 __fixdfsi
0002c380  w    F .text	00000010 _ZNKSs4rendEv
00037dc4 g     F .text	0000002c _ZNSt8ios_base7failureD0Ev
0002f82c  w    F .text	00000028 _ZNSs7replaceEjjRKSs
00022e5c g     F .text	000000c0 _Z19rpc__UpgradeError$CR10rpcMessage
08402020 g     O .descriptor_memory	00000020 rx_descriptor
000175d4 g     F .text	00000590 _ZN10CTestboard6DecodeERKSt6vectorItSaItEERS2_S5_RS0_IjSaIjEEh
00016478 g     F .text	0000004c _ZN10CTestboard22Daq_Deser400_OldFormatEb
0002e538  w    F .text	000000ac _ZNSs7reserveEj
00013a3c g     F .text	00000144 _ZN10CTestboardC1Ev
00017da0 g     F .text	00000264 _ZN10CTestboard13CountReadoutsEi
0002fa4c g     F .text	000000fc _ZNSt11regex_errorC2ENSt15regex_constants10error_typeE
0002aa30 g     F .text	00000010 _ZNSt9type_infoD1Ev
0004cd9c g     O .rwdata	00000008 alt_dev_list
0002fbb8 g     F .text	00000010 _ZN10__cxxabiv119__foreign_exceptionD1Ev
0004ce24 g     O .bss	00000004 __new_handler
00039cb0 g     F .text	00000044 _fputc_r
00049ec8  w    O .rodata	00000011 _ZTSSt12domain_error
00043e00 g     F .text	000000e8 write
00045530 g     F .text	00000030 alt_avalon_sgdma_enable_desc_poll
0003b02c g     F .text	000000bc _putc_r
00016798 g     F .text	00000154 _ZN10CTestboard11Daq_Enable2Ei
00048bf4  w    O .rodata	00000014 _ZTVSt12future_error
0002e190  w    F .text	0000007c _ZNSs4rendEv
0001f444 g     F .text	00000240 _ZN10rpcMessage7RecvCmdEv
0002aaa4 g     F .text	00000014 _ZNSt9type_infoD0Ev
00013c58 g     F .text	000000d4 _ZN10CTestboard6_SetVAEt
0003805c g     F .text	00000068 _ZNSt13runtime_errorD1Ev
000154e0 g     F .text	0000001c _ZN10CTestboard8tbm_AddrEhh
0000f05c g     F .text	00000090 _ZN12CFlashMemory6AssignEm
0004399c g     F .text	0000007c fstat
00020174 g     F .text	00000058 _Z11rpc__Poff$vR10rpcMessage
0002d240  w    F .text	00000008 _ZNSs12_Alloc_hiderC2EPcRKSaIcE
00039be4 g     F .text	00000044 __lshrdi3
000280b4  w    F .text	00000398 _ZNSt6vectorItSaItEE14_M_fill_assignEjRKt
00049d98  w    O .rodata	0000000c _ZTIN9__gnu_cxx20recursive_init_errorE
00043aac g     F .text	00000108 kill
00038258 g     F .text	00000034 _ZNSt12domain_errorC2ERKSs
00020b8c g     F .text	00000068 _Z21rpc__SignalProbeD2$vCR10rpcMessage
00038258 g     F .text	00000034 _ZNSt12domain_errorC1ERKSs
00026b24 g     F .text	00000228 _Z43rpc__LoopMultiRocOnePixelDacScan$b1CCCSSCCCR10rpcMessage
00026d4c g     F .text	00000214 _Z43rpc__LoopMultiRocAllPixelsDacScan$b1CSSCCCCR10rpcMessage
0004cdf8 g     O .bss	00000001 sensorCal
0003801c g     F .text	00000014 _ZNSt12domain_errorD1Ev
0002f1cc  w    F .text	0000003c _ZNSsC2IPcEET_S1_RKSaIcE
00041b84 g     F .text	0000012c __pow5mult
0002ee50  w    F .text	000000d8 _ZStplIcSt11char_traitsIcESaIcEESbIT_T0_T1_ES3_RKS6_
000235c4 g     F .text	00000280 _Z30rpc__PixelThreshold$iiiiiiiibbR10rpcMessage
0004ce4c g     O .bss	00000004 __nlocale_changed
00038104 g     F .text	0000002c _ZNSt15underflow_errorD0Ev
0002bcb0 g     F .text	00000014 _ZNSt14error_categoryD0Ev
000391e0 g     F .text	00000008 __umodsi3
0002aa50 g     F .text	00000008 _ZNKSt9type_info11__do_upcastEPKN10__cxxabiv117__class_type_infoEPPv
00038170 g     F .text	00000014 _ZNSt11range_errorD2Ev
00003484 g     F .text	0000001c f_chdrive
000252c0 g     F .text	00000298 _Z21rpc__Daq_Read$C5SI0ICR10rpcMessage
00045ea4 g     F .text	00000050 epcs_read_electronic_signature
0001484c g     F .text	00000088 _ZN10CTestboard13SignalProbeA1Eh
00045094 g     F .text	00000140 alt_avalon_sgdma_construct_mem_to_stream_desc
0002c6d8  w    F .text	00000044 _ZNKSs4findEPKcj
000105dc g     F .text	00000078 _ZN10DTB_CONFIG4InitEv
00045304 g     F .text	00000010 alt_avalon_sgdma_register_callback
0002cdf0  w    F .text	0000007c _ZNKSs16find_last_not_ofERKSsj
00021688 g     F .text	0000008c _Z22rpc__Sig_SetDelay$vCScR10rpcMessage
0005e530 g       *ABS*	00000000 end
00038438 g     F .text	00000034 _ZNSt15underflow_errorC2ERKSs
00020914 g     F .text	00000068 _Z17rpc__Daq_Start$vCR10rpcMessage
0002fb48 g     F .text	00000014 _ZNSt17bad_function_callD2Ev
00010960  w    F .text	000000d0 _ZN10DTB_CONFIGD1Ev
0002f1cc  w    F .text	0000003c _ZNSsC1IPcEET_S1_RKSaIcE
00039ca4 g     F .text	0000000c _atoi_r
000239cc g     F .text	00000118 _Z20rpc__tbm_GetRaw$bC0IR10rpcMessage
0002c174  w    F .text	00000010 _ZNKSs7_M_iendEv
00039644 g     F .text	00000018 _Unwind_DeleteException
00028084  w    F .text	00000010 _ZNSt6vectorIsSaIsEED2Ev
00044758 g     F .text	00000080 altera_avalon_jtag_uart_init
0004cdfc g     O .bss	00000004 rpc_error
00028084  w    F .text	00000010 _ZNSt6vectorIsSaIsEED1Ev
0004d09c g     O .bss	0000001c dtbConfig
000201cc g     F .text	00000058 _Z10rpc__Pon$vR10rpcMessage
0002cbc0  w    F .text	00000014 _ZNKSs12find_last_ofEcj
0002c350  w    F .text	00000008 _ZNKSs5beginEv
0002908c g     F .text	000000d0 _ZNK10__cxxabiv117__class_type_info12__do_dyncastEiNS0_10__sub_kindEPKS0_PKvS3_S5_RNS0_16__dyncast_resultE
00046e04 g       *ABS*	00000000 __CTOR_LIST__
08000000 g       *ABS*	00000000 __alt_stack_pointer
0002e3e0  w    F .text	000000b0 _ZNSs4_Rep8_M_cloneERKSaIcEj
00010654 g     F .text	00000004 _ZN10DTB_CONFIG6GetIntEPc
00045560 g     F .text	00000020 alt_avalon_sgdma_disable_desc_poll
0005e268  w    O .bss	00000010 _ZNSs4_Rep20_S_empty_rep_storageE
00010664 g     F .text	00000060 _ZN10DTB_CONFIG9GetStringEPc
000457a8 g     F .text	00000050 alt_avalon_timer_sc_init
00037ec0 g     F .text	00000008 _ZNKSt13runtime_error4whatEv
00039740 g     F .text	000000ac __clzsi2
0003bc44 g     F .text	000000a4 _snprintf_r
00049f60  w    O .rodata	0000000c _ZTISt13runtime_error
00011e74 g     F .text	00000030 _ZN10CTestboard8SetClockEh
00028e7c g     F .text	0000007c _ZNK10__cxxabiv117__class_type_info11__do_upcastEPKS0_PPv
0002844c  w    F .text	00000398 _ZNSt6vectorIsSaIsEE14_M_fill_assignEjRKs
000449c8 g     F .text	00000188 altera_avalon_jtag_uart_write
000207dc g     F .text	00000068 _Z26rpc__Daq_Deser400_Reset$vCR10rpcMessage
00044cc0 g     F .text	0000010c alt_avalon_sgdma_construct_mem_to_mem_desc
00040d38 g     F .text	00000004 __sfp_lock_acquire
00048e70  w    O .rodata	00000012 _ZTSSt13bad_exception
0003ab54 g     F .text	000000f8 memchr
00010ecc  w    F .text	00000018 _ZN4CUSB6RxFullEv
0003ce4c g     F .text	00001df8 ___vfprintf_internal_r
0004a004  w    O .rodata	00000014 _ZTVSt12length_error
0003bd94 g     F .text	00000058 _sprintf_r
00016cf4 g     F .text	000000a8 _ZN10CTestboard11DecodePixelEjRsS0_S0_S0_
00044ef0 g     F .text	000000d0 alt_avalon_sgdma_construct_stream_to_mem_desc
00040eb4 g     F .text	000002d0 _free_r
00037d08 g     F .text	0000000c _ZNKSt8bad_cast4whatEv
00010de0 g     F .text	000000cc _ZN4CUSB8ReadByteERh
0002cfe8  w    F .text	000000b4 _ZNKSs7compareEjjRKSsjj
00015804 g     F .text	00000128 _ZN10CTestboard13Daq_FillLevelEh
0000b3fc g     F .text	00000050 _ZN10CTestboard27LoopMultiRocOnePixelDacScanERSt6vectorIhSaIhEEhhtthhh
0002f6fc  w    F .text	00000024 _ZNSs7replaceEN9__gnu_cxx17__normal_iteratorIPcSsEES2_S2_S2_
00007e78 g     F .text	000000d8 _ZN10CTestboard18LoopInterruptStoreEthhjhjh
0002d434  w    F .text	00000038 _ZNSsC1ERKSaIcE
00014afc g     F .text	00000060 _ZN10CTestboard12Pg_SetCmdAllERSt6vectorItSaItEE
00011a8c g     F .text	0000008c _ZN10CTestboard12UpgradeStartEt
0001f1e4  w    F .text	00000170 _ZNSt6vectorIhSaIhEE13_M_insert_auxEN9__gnu_cxx17__normal_iteratorIPhS1_EERKh
000469fc g     F .text	000001a0 __call_exitprocs
0002d278  w    F .text	00000008 _ZNSs4_Rep15_M_set_sharableEv
0002e2d8  w    F .text	0000004c _ZNSs4backEv
0001b59c g     F .text	0000059c _ZN10CTestboard14CalibratePixelEsssRsRi
00016cc8 g     F .text	00000014 _ZN10CTestboard15DecodeTbmHeaderEjRsS0_
00011cd0 g     F .text	00000008 _ZN10CTestboard6uDelayEt
0004cd58  w    O .rwdata	00000004 _ZNSs4_Rep11_S_max_sizeE
00037fdc g     F .text	00000014 _ZNSt16invalid_argumentD2Ev
00022450 g     F .text	000000f8 _Z41rpc__LoopSingleRocAllPixelsCalibrate$bCSSR10rpcMessage
0004ce48 g     O .bss	00000004 __mlocale_changed
00003458 g     F .text	0000002c f_close
00037f9c g     F .text	00000014 _ZNSt12length_errorD1Ev
0002c77c  w    F .text	00000088 _ZNKSs5rfindEPKcjj
0004cd88 g     O .rwdata	00000004 __malloc_sbrk_base
00000250 g     F .text	00000048 _start
00049ebc  w    O .rodata	0000000c _ZTISt11logic_error
0002c138  w    F .text	00000008 _ZNKSs4dataEv
00010a8c g     F .text	00000020 _ZN4CUSB5WriteEPKvj
0004ce64 g     O .bss	00000004 _alt_tick_rate
0000dd24 g     F .text	00000988 _ZN10CTestboard32LoopSingleRocAllPixelsDacDacScanEhtthhhhhhhh
000489e8  w    O .rodata	0000000d _ZTSSt9type_info
0004cdf0 g     O .bss	00000004 sgdma_tx_dev
0002c398  w    F .text	00000010 _ZNKSs4cendEv
000122f8 g     F .text	000000ac _ZN10CTestboard11Sig_RestoreEv
00045374 g     F .text	0000006c alt_avalon_sgdma_open
0002c3e8  w    F .text	0000000c _ZNKSs8capacityEv
0002c154  w    F .text	0000000c _ZNSs7_M_dataEPc
0003ce10 g     F .text	00000008 _user_strerror
000148d4 g     F .text	00000088 _ZN10CTestboard13SignalProbeA2Eh
000152f4 g     F .text	000001d0 _ZN10CTestboard13roc_Chip_MaskEv
00038438 g     F .text	00000034 _ZNSt15underflow_errorC1ERKSs
00037c70 g     F .text	0000000c _ZNKSt9bad_alloc4whatEv
00015640 g     F .text	0000010c _ZN10CTestboard7tbm_GetEhRh
00028e34 g     F .text	00000024 __cxa_pure_virtual
0001ff0c g     F .text	00000058 _Z17rpc__Pg_Trigger$vR10rpcMessage
00041cb0 g     F .text	0000015c __lshift
000467d8 g     F .text	000000e8 alt_avalon_spi_command
00049de4  w    O .rodata	00000014 _ZTVSt9bad_alloc
0004ce60 g     O .bss	00000004 _alt_nticks
0003bb98 g     F .text	0000001c signal
0002c3a8  w    F .text	00000018 _ZNKSs7crbeginEv
00043ca0 g     F .text	000000ec read
00043f08 g     F .text	000000b0 alt_sys_init
0002ecf8  w    F .text	00000070 _ZNSsC2ERKSs
0002c58c  w    F .text	00000008 _ZNKSs13get_allocatorEv
00049e18  w    O .rodata	0000000c _ZTISt10bad_typeid
00022230 g     F .text	00000110 _Z42rpc__LoopSingleRocAllPixelsDacScan$bCSSCCCR10rpcMessage
0002e290  w    F .text	00000048 _ZNSsixEj
0002d3f4  w    F .text	00000040 _ZNSsC2EjcRKSaIcE
0003ef34 g     F .text	00000130 __register_exitproc
00049dc8  w    O .rodata	0000000d _ZTSSt9bad_alloc
0000298c g     F .text	00000418 f_read
00007fa8 g     F .text	00000050 _ZN10CTestboard19GetLoopTriggerDelayEt
0003c6d4 g     F .text	000000fc strncmp
0002a844 g     F .text	00000160 _ZNK10__cxxabiv120__si_class_type_info12__do_dyncastEiNS_17__class_type_info10__sub_kindEPKS1_PKvS4_S6_RNS1_16__dyncast_resultE
0001574c g     F .text	0000005c _ZN10CTestboard9LLD_WriteEhh
0001f684 g     F .text	00000090 _ZN10rpcMessage7SendDatERjPKvj
0002dbf4  w    F .text	00000070 _ZNSs5eraseEN9__gnu_cxx17__normal_iteratorIPcSsEES2_
00046680 g     F .text	00000028 alt_remap_uncached
00048a64  w    O .rodata	0000000c _ZTISt12system_error
000419a4 g     F .text	000001e0 __multiply
00003ca0 g     F .text	000000c4 f_readdir
000447d8 g     F .text	00000048 altera_avalon_jtag_uart_close
0003801c g     F .text	00000014 _ZNSt12domain_errorD2Ev
000394a8 g     F .text	000000e0 _Unwind_SjLj_RaiseException
00006da0 g     F .text	0000021c ffs_DiskIORead
0002cf08  w    F .text	00000050 _ZNKSs7compareERKSs
00020f4c g     F .text	00000068 _Z14rpc__SetLed$vCR10rpcMessage
0005e278 g     O .bss	00000028 __malloc_current_mallinfo
00021ec4 g     F .text	0000012c _Z44rpc__LoopSingleRocOnePixelDacScan$bCCCSSCCCCR10rpcMessage
000395c4 g     F .text	0000003c _Unwind_SjLj_Resume
0002e058  w    F .text	00000018 _ZNSs7_M_leakEv
000421b4 g     F .text	00000144 __d2b
00048f10  w    O .rodata	00000014 _ZTVN10__cxxabiv119__foreign_exceptionE
000154c4 g     F .text	00000008 _ZN10CTestboard11TBM_PresentEv
0002aa30 g     F .text	00000010 _ZNSt9type_infoD2Ev
0000f604 g     F .text	00000344 _ZN14CSRecordReader7GetHex4ERPKc
0002bd2c g     F .text	00000010 _ZNSt14error_categoryC1Ev
0002fbe0 g     F .text	00000014 _ZN10__cxxabiv119__foreign_exceptionD0Ev
000457f8 g     F .text	00000040 epcs_read_status_register
0002d4e0  w    F .text	0000019c _ZNSs9_M_mutateEjjj
00004b38 g     F .text	000000e0 f_chmod
0002a9a4 g     F .text	0000008c _ZNK10__cxxabiv120__si_class_type_info11__do_upcastEPKNS_17__class_type_infoEPKvRNS1_15__upcast_resultE
0001659c g     F .text	000001fc _ZN10CTestboard11DecodePixelERSt6vectorItSaItEERsS4_S4_S4_S4_
0001e264  w    F .text	000004c0 _ZNSt6vectorIsSaIsEE14_M_fill_insertEN9__gnu_cxx17__normal_iteratorIPsS1_EEjRKs
000143ac g     F .text	00000028 _ZN10CTestboard12uA100_to_DACEi
00037fdc g     F .text	00000014 _ZNSt16invalid_argumentD1Ev
0002c358  w    F .text	00000010 _ZNKSs3endEv
000163e8 g     F .text	00000090 _ZN10CTestboard19Daq_Select_Deser400Ev
0003b294 g     F .text	0000001c realloc
000210f4 g     F .text	00000078 _Z21rpc__roc_Pix_Cal$vCCbR10rpcMessage
000188d8 g     F .text	000011cc _ZN10CTestboard12ThresholdMapEiibbbRSt6vectorIsSaIsEE
000445bc g     F .text	00000010 altera_avalon_jtag_uart_read_fd
0004696c g     F .text	00000058 alt_get_fd
00011be0 g     F .text	0000004c _ZN10CTestboard15UpgradeErrorMsgERSs
00006a70 g     F .text	00000048 ffs_DiskIOTimerproc
000460d4 g     F .text	00000060 alt_busy_sleep
000123d8 g     F .text	00000034 _ZN10CTestboard11Sig_SetLCDSEv
00039b14 g     F .text	000000d0 __fpcmp_parts_d
0002734c g     F .text	000001c0 _Z41rpc__LoopMultiRocAllPixelsCalibrate$b1CSSR10rpcMessage
00049fa8  w    O .rodata	00000014 _ZTSSt15underflow_error
0001482c g     F .text	00000010 _ZN10CTestboard13SignalProbeD1Eh
00022548 g     F .text	000000d0 _Z16rpc__LLD_Read$CCR10rpcMessage
0004cd70  w    O .rwdata	00000008 _ZTIN10__cxxabiv119__foreign_exceptionE
000427dc g     F .text	00000064 _close_r
000380f0 g     F .text	00000014 _ZNSt15underflow_errorD2Ev
00014520 g     F .text	0000012c _ZN10CTestboard6GetADCEh
0002e684  w    F .text	000000e0 _ZNSs6appendEjc
00006ab8 g     F .text	000002e0 ffs_DiskIOInitialize
00010ef4  w    F .text	00000010 _ZN6CRpcIoD0Ev
00045ef4 g     F .text	0000005c epcs_read_device_id
0002e97c  w    F .text	000000f4 _ZNSs6appendERKSsjj
0002cb00  w    F .text	0000007c _ZNKSs12find_last_ofERKSsj
00014ad4 g     F .text	00000028 _ZN10CTestboard9Pg_SetCmdEtt
0003ac4c g     F .text	0000007c memcmp
000229fc g     F .text	000000c0 _Z16rpc__GetStatus$CR10rpcMessage
00020464 g     F .text	00000068 _Z16rpc__mod_Addr$vCR10rpcMessage
000445dc g     F .text	00000010 altera_avalon_jtag_uart_close_fd
0004cd24  w    O .rwdata	00000008 _ZTI6CRpcIo
00010ab4 g     F .text	000000f4 _ZN4CUSB4ReadEPvj
0005e530 g       *ABS*	00000000 __alt_stack_base
000445ec g     F .text	0000000c altera_avalon_jtag_uart_ioctl_fd
0003a2c8 g     F .text	000000a0 _fwrite_r
00049da4  w    O .rodata	00000014 _ZTVN9__gnu_cxx20recursive_init_errorE
0001650c g     F .text	00000080 _ZN10CTestboard24Daq_Select_DatageneratorEt
00037c90 g     F .text	0000002c _ZNSt9bad_allocD0Ev
0002a764 g     F .text	00000014 _ZN10__cxxabiv120__si_class_type_infoD1Ev
0002eb44  w    F .text	000000e4 _ZNSs13shrink_to_fitEv
00024cc0 g     F .text	0000012c _Z22rpc__CountReadouts$iiiR10rpcMessage
000084f4 g     F .text	00000914 _ZN10CTestboard30LoopMultiRocAllPixelsCalibrateERSt6vectorIhSaIhEEtt
00014c28 g     F .text	00000028 _ZN10CTestboard7Pg_LoopEt
00038170 g     F .text	00000014 _ZNSt11range_errorD1Ev
0002116c g     F .text	00000068 _Z30rpc__Daq_Deser400_OldFormat$vbR10rpcMessage
0003edc0 g     F .text	00000174 __swsetup_r
00049f6c  w    O .rodata	00000010 _ZTSSt11range_error
0004cd34 g     O .rwdata	00000002 _ZN10CTestboard19flashUpgradeVersionE
00039600 g     F .text	00000044 _Unwind_SjLj_Resume_or_Rethrow
0000bd04 g     F .text	00000814 _ZN10CTestboard28LoopSingleRocOnePixelDacScanEhhhtthhhh
00038bdc g     F .text	000001b4 __divdf3
000114a0 g     F .text	00000094 _ZN10CTestboard14GetRpcCallNameEiRSs
00040c3c g     F .text	000000fc __sfp
00022ff8 g     F .text	000000b8 _Z24rpc__UpgradeGetVersion$SR10rpcMessage
00018384 g     F .text	00000554 _ZN10CTestboard14PixelThresholdEiiiiiiibb
00042410 g     F .text	0000007c __copybits
00049edc  w    O .rodata	0000000c _ZTISt12domain_error
00049e48  w    O .rodata	0000000c _ZTSSt8bad_cast
0002aa40 g     F .text	00000008 _ZNKSt9type_info14__is_pointer_pEv
0001feb4 g     F .text	00000058 _Z26rpc__Daq_Select_Deser400$vR10rpcMessage
0002f6d8  w    F .text	00000024 _ZNSs7replaceEN9__gnu_cxx17__normal_iteratorIPcSsEES2_NS0_IPKcSsEES5_
00049f9c  w    O .rodata	0000000c _ZTISt14overflow_error
0004b5a4 g     O .rwdata	00000408 __malloc_av_
00040d44 g     F .text	00000004 __sinit_lock_release
000123a4 g     F .text	00000034 _ZN10CTestboard11Sig_SetLVDSEv
0002ce6c  w    F .text	00000044 _ZNKSs16find_last_not_ofEPKcj
000388f8 g     F .text	000002e4 __muldf3
0001d508  w    F .text	00000010 _ZNSt6vectorItSaItEED1Ev
00042574 g     F .text	00000054 __sread
00021ff0 g     F .text	00000128 _Z43rpc__LoopSingleRocOnePixelDacScan$bCCCSSCCCR10rpcMessage
00007ab8 g     F .text	0000000c get_fattime
0002fbf4 g     F .text	00000014 _ZN10__cxxabiv115__forced_unwindD0Ev
00048ed4  w    O .rodata	00000014 _ZTVSt9exception
000247e0 g     F .text	000001a4 _Z24rpc__GetRpcCallName$bi4cR10rpcMessage
00011a34 g     F .text	00000050 _ZN10CTestboard9ToggleLedEhb
0002e764  w    F .text	00000070 _ZNSs6resizeEjc
000468c0 g     F .text	000000ac alt_find_file
0002f8b8  w    F .text	00000038 _ZNSs7replaceEN9__gnu_cxx17__normal_iteratorIPcSsEES2_RKSs
0002df94  w    F .text	00000068 _ZNSs5clearEv
0001d518  w    F .text	00000010 _ZNSt6vectorIjSaIjEED1Ev
00046134 g     F .text	0000006c alt_dev_llist_insert
00043c98 g     F .text	00000004 __malloc_lock
00043db0 g     F .text	0000004c sbrk
0002101c g     F .text	00000068 _Z18rpc__tbm_Enable$vbR10rpcMessage
0002b038 g     F .text	000000e4 _ZSt20__throw_domain_errorPKc
0001a25c g     F .text	0000071c _ZN10CTestboard18test_pixel_addressEii
0002af54 g     F .text	000000e4 _ZSt19__throw_logic_errorPKc
00045314 g     F .text	00000018 alt_avalon_sgdma_start
0002152c g     F .text	00000074 _Z14rpc___SetID$vSR10rpcMessage
000488c8  w    O .rodata	0000002c _ZTVN10__cxxabiv117__class_type_infoE
0002a3cc g     F .text	00000080 __cxa_throw
0001d518  w    F .text	00000010 _ZNSt6vectorIjSaIjEED2Ev
00040888 g     F .text	000001e8 _fflush_r
0003946c g     F .text	00000010 _Unwind_SetIP
0001fe5c g     F .text	00000058 _Z22rpc__Daq_DeselectAll$vR10rpcMessage
00042720 g     F .text	000000bc _calloc_r
00016594 g     F .text	00000008 _ZN10CTestboard23SetPixelAddressInvertedEb
000287e4 g     F .text	000000dc _ZN4CDmaC2Ev
0004cdb0 g     O .rwdata	00000008 alt_flash_dev_list
00049f20  w    O .rodata	0000000c _ZTISt12length_error
00028a74 g     F .text	0000029c _ZN4CDma3AddEPKvj
0003ca58 g     F .text	00000024 strtoull
0002d26c  w    F .text	0000000c _ZNSs4_Rep13_M_set_leakedEv
0001fc5c g     F .text	000000f0 _ZN10rpcMessage8DataSinkEj
000172c4 g     F .text	00000058 _ZN10CTestboard10VectorTestERSt6vectorItSaItEES3_
00014d9c g     F .text	000000bc _ZN10CTestboard7roc_PixEhhh
0002b4ac g     F .text	000000e4 _ZSt19__throw_range_errorPKc
000203f4 g     F .text	00000070 _Z16rpc__tbm_Set$vCCR10rpcMessage
0003828c g     F .text	00000034 _ZNSt16invalid_argumentC1ERKSs
0001d420  w    F .text	000000e8 _ZNSt6vectorItSaItEE7reserveEj
0004cdd0 g       *ABS*	00000000 __bss_start
00014f18 g     F .text	000000bc _ZN10CTestboard12roc_Pix_MaskEhh
0003aee8 g     F .text	000000dc memset
000212bc g     F .text	0000008c _Z25rpc__Daq_Select_ADC$vSCCCR10rpcMessage
0000bcc0 g     F .text	00000044 _ZN10CTestboard29LoopSingleRocAllPixelsDacScanEhtthhh
000180d4 g     F .text	000002b0 _ZN10CTestboard9ThresholdEiiiii
0002c31c  w    F .text	0000000c _ZNSs12_S_empty_repEv
00010f04 g     F .text	00000068 main
00024054 g     F .text	00000234 _Z19rpc__Daq_Read$C5SICR10rpcMessage
00049f4c  w    O .rodata	00000012 _ZTSSt13runtime_error
0002cf58  w    F .text	00000090 _ZNKSs7compareEjjRKSs
00014818 g     F .text	00000014 _ZN10CTestboard13SetRocAddressEh
00011210 g     F .text	00000008 _ZN10CTestboard20Ethernet_RecvPacketsEv
000200c4 g     F .text	00000058 _Z12rpc__HVoff$vR10rpcMessage
0002ccd8  w    F .text	00000044 _ZNKSs17find_first_not_ofEPKcj
000143e4 g     F .text	00000010 _ZN10CTestboard12ADC_to_uA100Ej
0004ce50 g     O .bss	00000004 alt_envp
0004ce34 g     O .bss	00000004 __malloc_max_total_mem
00023430 g     F .text	00000194 _Z28rpc__CalibratePixel$csss0s0iR10rpcMessage
00049e24  w    O .rodata	00000014 _ZTVSt10bad_typeid
00017d78 g     F .text	00000028 _ZN10CTestboard8Daq_ReadERSt6vectorItSaItEEjRjh
000445cc g     F .text	00000010 altera_avalon_jtag_uart_write_fd
00014b64 g     F .text	00000010 _ZN10CTestboard7Pg_StopEv
00025558 g     F .text	00000098 _Z14rpc_DispatcherR6CRpcIo
0003eda4 g     F .text	0000001c __swbuf
0002ae74 g     F .text	00000038 _ZSt21__throw_bad_exceptionv
0002fc98 g     F .text	00000008 __cxa_get_globals_fast
0000320c g     F .text	0000024c f_sync
0002c558  w    F .text	0000002c _ZNSsaSEOSs
00021b28 g     F .text	00000140 _Z49rpc__LoopSingleRocOnePixelDacDacScan$bCCCSSCCCCCCR10rpcMessage
0004cdbc g     O .rwdata	00000008 alt_sgdma_list
0002ba8c g     F .text	00000038 _ZSt25__throw_bad_function_callv
00037c44 g     F .text	0000002c _ZN9__gnu_cxx20recursive_init_errorD0Ev
00049e74  w    O .rodata	00000016 _ZTSNSt8ios_base7failureE
00048a70  w    O .rodata	00000024 _ZTVSt14error_category
0002d330  w    F .text	000000b0 _ZNSs12_S_constructEjcRKSaIcE
00049e60  w    O .rodata	00000014 _ZTVSt8bad_cast
000426ac g     F .text	00000008 __sclose
0002915c g     F .text	00000008 _ZdaPv
08000000 g       *ABS*	00000000 __alt_heap_limit
0001dd04  w    F .text	000002b0 _ZNSt6vectorItSaItEE15_M_range_insertIPtEEvN9__gnu_cxx17__normal_iteratorIS3_S1_EET_S7_St20forward_iterator_tag
0002c22c  w    F .text	0000001c _ZNSs7_M_copyEPcPKcj
00037cbc g     F .text	0000000c _ZNKSt10bad_typeid4whatEv
0004297c g     F .text	00000014 fclose
0002c65c  w    F .text	0000007c _ZNKSs4findERKSsj
0003c7d0 g     F .text	00000264 _strtol_r
0002bb84 g     F .text	00000010 _ZNSt14error_categoryD1Ev
0005e2a0 g     O .bss	00000190 _atexit0
00037f5c g     F .text	00000014 _ZNSt12out_of_rangeD1Ev
00014b5c g     F .text	00000008 _ZN10CTestboard9Pg_SetSumEt
0003f26c g     F .text	0000161c _dtoa_r
00013d2c g     F .text	00000130 _ZN10CTestboard6_GetVDEv
0003a3d0 g     F .text	00000784 _malloc_r
0002f914  w    F .text	0000003c _ZNSsC2IPKcEET_S2_RKSaIcE
0000505c g     F .text	000007e0 f_mkfs
0002fbd4 g     F .text	0000000c _ZNKSt13bad_exception4whatEv
0002e938  w    F .text	00000008 _ZNSspLESt16initializer_listIcE
0001dfb4  w    F .text	000002b0 _ZNSt6vectorItSaItEE15_M_range_insertIN9__gnu_cxx17__normal_iteratorIPtS1_EEEEvS6_T_S7_St20forward_iterator_tag
0002d434  w    F .text	00000038 _ZNSsC2ERKSaIcE
0004cdac g     O .rwdata	00000004 alt_errno
08402060 g     O .descriptor_memory	00000020 tx_descriptor
000474c8  w    O .rodata	0000000c _ZTI4CUSB
0002f744  w    F .text	00000024 _ZNSs7replaceEN9__gnu_cxx17__normal_iteratorIPcSsEES2_S1_S1_
000213bc g     F .text	00000074 _Z17rpc__Pg_SetSum$vSR10rpcMessage
00012188 g     F .text	00000094 _ZN10CTestboard12Sig_SetLevelEhh
000025a4 g     F .text	00000030 f_mount
00038404 g     F .text	00000034 _ZNSt14overflow_errorC2ERKSs
0002cb7c  w    F .text	00000044 _ZNKSs12find_last_ofEPKcj
00038184 g     F .text	0000002c _ZNSt11range_errorD0Ev
0002c0bc g     F .text	00000068 _ZSt15future_categoryv
0005d578 g     O .bss	00000400 rx_frame
0003bbb4 g     F .text	00000010 _init_signal
000488bc  w    O .rodata	0000000c _ZTIN10__cxxabiv117__class_type_infoE
0002bb94 g     F .text	0000000c _ZNKSt14error_category23default_error_conditionEi
00028df8 g     F .text	00000034 _ZN8CUGError11GetErrorMsgEv
00041184 g     F .text	000000a8 _fwalk
00021818 g     F .text	00000074 _Z14rpc__cDelay$vSR10rpcMessage
000128d4 g     F .text	000006c0 _ZN10CTestboard4PoffEv
00003bdc g     F .text	000000c4 f_opendir
000258f4 g     F .text	0000028c _Z33rpc__CalibrateDacScan$cssssss2s2iR10rpcMessage
0002fb98 g     F .text	00000010 _ZNSt13bad_exceptionD1Ev
0002032c g     F .text	00000058 _Z11rpc__Init$vR10rpcMessage
000082c8 g     F .text	0000022c _ZN10CTestboard11LoopPixTrimEhhh
0003b0e8 g     F .text	000000f0 putc
0003912c g     F .text	00000050 __divsi3
0004a07c g     O .rodata	00000014 __thenan_df
00015510 g     F .text	00000058 _ZN10CTestboard7tbm_SetEhh
00040d78 g     F .text	0000013c _malloc_trim_r
00046e18 g       *ABS*	00000000 __CTOR_END__
0002c248  w    F .text	0000001c _ZNSs7_M_moveEPcPKcj
00048a94  w    O .rodata	00000014 _ZTVSt12system_error
0002ea70  w    F .text	000000cc _ZNSs6appendERKSs
00014b74 g     F .text	00000018 _ZN10CTestboard9Pg_SingleEv
0002e5e4  w    F .text	000000a0 _ZNSs9push_backEc
00044184 g     F .text	00000264 alt_epcs_flash_write
0003bf40 g     F .text	000000a4 strcmp
0002c2f4  w    F .text	00000020 _ZNSs13_S_copy_charsEPcPKcS1_
0002c8c4  w    F .text	0000005c _ZNKSs5rfindEcj
00048efc  w    O .rodata	00000014 _ZTVN10__cxxabiv115__forced_unwindE
00037d5c g     F .text	00000068 _ZNSt8ios_base7failureD2Ev
00046e18 g       *ABS*	00000000 __DTOR_LIST__
00012098 g     F .text	0000008c _ZN10CTestboard11Sig_SetModeEhh
0000c518 g     F .text	00000054 _ZN10CTestboard28LoopSingleRocOnePixelDacScanEhhhtthhh
00007ff8 g     F .text	000000c8 _ZN10CTestboard15SetI2CAddressesERSt6vectorIhSaIhEE
00037df0 g     F .text	000000c8 _ZNSt8ios_base7failureC1ERKSs
0001d828  w    F .text	000001a8 _ZNSt6vectorIjSaIjEE13_M_insert_auxEN9__gnu_cxx17__normal_iteratorIPjS1_EERKj
0002d3e0  w    F .text	00000014 _ZNSs18_S_construct_aux_2EjcRKSaIcE
0002fa4c g     F .text	000000fc _ZNSt11regex_errorC1ENSt15regex_constants10error_typeE
0001e9c4  w    F .text	000002a0 _ZNSt6vectorIjSaIjEE14_M_fill_insertEN9__gnu_cxx17__normal_iteratorIPjS1_EEjRKj
0002f98c  w    F .text	00000060 _ZNSsC1EPKcRKSaIcE
0002bbf4 g     F .text	0000001c _ZNKSt14error_category10equivalentERKSt10error_codei
00002588 g     F .text	0000001c put_fat
00014fd4 g     F .text	00000130 _ZN10CTestboard11roc_Pix_CalEhhb
00014808 g     F .text	00000010 _ZN10CTestboard9GetStatusEv
000436e4 g     F .text	0000005c __nedf2
00037d14 g     F .text	00000014 _ZNSt8bad_castD2Ev
0000ff94 g     F .text	000002b0 _ZN14CSRecordReader4ReadEPKc
000382f4 g     F .text	00000034 _ZNSt12out_of_rangeC1ERKSs
00007c70 g     F .text	00000208 _ZN10CTestboard19LoopInterruptResumeEtRhS0_RjS0_S1_S0_
00043ee8 g     F .text	00000020 alt_irq_init
0002f0dc  w    F .text	000000f0 _ZNSs12_S_constructIPcEES0_T_S1_RKSaIcESt20forward_iterator_tag
00043d8c g     F .text	00000024 alt_release_fd
0002a778 g     F .text	0000002c _ZN10__cxxabiv120__si_class_type_infoD0Ev
0002e380  w    F .text	0000003c _ZNSs8pop_backEv
000038c0 g     F .text	0000031c f_lseek
0002f7d0  w    F .text	0000005c _ZNSs7replaceEjjRKSsjj
0003bdec g     F .text	0000006c sprintf
0004a090 g     O .rodata	00000100 __clz_tab
00037ec8 g     F .text	00000068 _ZNSt11logic_errorD2Ev
00023c4c g     F .text	00000184 _Z21rpc__GetRpcCallId$i3cR10rpcMessage
0002dffc  w    F .text	0000005c _ZNSs12_M_leak_hardEv
0004ce44 g     O .bss	00000004 _PathLocale
00020c5c g     F .text	00000068 _Z27rpc__Sig_SetRdaToutDelay$vCR10rpcMessage
00049eac  w    O .rodata	00000010 _ZTSSt11logic_error
00037ec8 g     F .text	00000068 _ZNSt11logic_errorD1Ev
00025dc8 g     F .text	00000190 _Z24rpc__TestColPixel$bCCb2CR10rpcMessage
00039c84 g     F .text	00000014 atexit
0001404c g     F .text	000000c0 _ZN10CTestboard6_SetIAEt
00049f7c  w    O .rodata	0000000c _ZTISt11range_error
0002fd20 g     F .text	00000010 __cxa_guard_release
000474d4  w    O .rodata	00000024 _ZTV4CUSB
000383d0 g     F .text	00000034 _ZNSt11range_errorC1ERKSs
000426b4 g     F .text	0000006c _write_r
000209e4 g     F .text	00000068 _Z21rpc__SetRocAddress$vCR10rpcMessage
0002df84  w    F .text	00000010 _ZNSs6insertEjRKSs
0002bba0 g     F .text	00000054 _ZNKSt14error_category10equivalentEiRKSt15error_condition
0002068c g     F .text	00000078 _Z17rpc__roc_Pix$vCCCR10rpcMessage
00041398 g     F .text	0000001c setlocale
00037f70 g     F .text	0000002c _ZNSt12out_of_rangeD0Ev
00023220 g     F .text	000000b8 _Z17rpc__GetBoardId$SR10rpcMessage
00022618 g     F .text	000000c0 _Z30rpc__GetPixelAddressInverted$bR10rpcMessage
000394a0 g     F .text	00000008 _Unwind_GetTextRelBase
0002fc30 g     F .text	0000005c __cxa_call_terminate
00010474 g     F .text	00000168 _Z10epcs_writePhjj
00022f1c g     F .text	000000dc _Z20rpc__UpgradeStart$CSR10rpcMessage
00020d2c g     F .text	00000070 _Z21rpc__Sig_SetLevel$vCCR10rpcMessage
0002d928  w    F .text	000000b8 _ZNSs14_M_replace_auxEjjjc
0004cd84 g     O .rwdata	00000004 _impure_ptr
0004cd68  w    O .rwdata	00000008 _ZTIN10__cxxabiv115__forced_unwindE
0004ce58 g     O .bss	00000004 alt_argc
0002da00  w    F .text	00000074 _ZNSs7replaceEjjjc
00021714 g     F .text	00000090 _Z25rpc__SetClockStretch$vCSSR10rpcMessage
00016cdc g     F .text	00000018 _ZN10CTestboard16DecodeTbmTrailerEjRsS0_
0002f270  w    F .text	00000068 _ZNSsC1ERKSsjj
00046204 g     F .text	00000064 _do_dtors
00011bd0 g     F .text	00000010 _ZN10CTestboard12UpgradeErrorEv
0002fa0c g     F .text	00000014 _ZNSt11regex_errorD2Ev
00047510  w    O .rodata	00000024 _ZTV6CRpcIo
000211d4 g     F .text	00000074 _Z27rpc__SetLoopTriggerDelay$vSR10rpcMessage
00014e58 g     F .text	000000c0 _ZN10CTestboard12roc_Pix_TrimEhhh
00048be8  w    O .rodata	0000000c _ZTISt12future_error
0002ef28  w    F .text	000000b4 _ZStplIcSt11char_traitsIcESaIcEESbIT_T0_T1_ERKS6_S8_
0002f2d8  w    F .text	00000044 _ZNKSs6substrEjj
000268e8 g     F .text	0000023c _Z44rpc__LoopMultiRocOnePixelDacScan$b1CCCSSCCCCR10rpcMessage
00000120 g       .exceptions	00000000 alt_irq_entry
00006d98 g     F .text	00000008 ffs_DiskIOStatus
0002c3f4  w    F .text	00000010 _ZNKSs5emptyEv
00010ee4  w    F .text	00000010 _ZN4CUSBD0Ev
0004200c g     F .text	00000060 __ulp
00042510 g     F .text	00000038 __isinfd
00039490 g     F .text	00000008 _Unwind_FindEnclosingFunction
00012260 g     F .text	00000098 _ZN10CTestboard7Sig_OffEv
00011000 g     F .text	00000124 _ZN10CTestboard13Ethernet_InitEv
00003d64 g     F .text	00000090 f_stat
0002f9ec  w    F .text	00000010 _ZN9__gnu_cxxeqIPcSsEEbRKNS_17__normal_iteratorIT_T0_EES7_
00040d60 g     F .text	00000018 __fp_unlock_all
00039cf4 g     F .text	00000060 fputc
00024dec g     F .text	00000100 _Z21rpc__CountReadouts$iiR10rpcMessage
0001fd54 g     F .text	00000058 _Z25rpc__LoopInterruptReset$vR10rpcMessage
00026f60 g     F .text	00000200 _Z42rpc__LoopMultiRocAllPixelsDacScan$b1CSSCCCR10rpcMessage
00010c10 g     F .text	000000d0 _Z16I2C_EEPROM_WritehPKhh
0004cda4 g     O .rwdata	00000008 alt_fs_list
00048eb0  w    O .rodata	00000024 _ZTSN10__cxxabiv119__foreign_exceptionE
000143f4 g     F .text	0000008c _ZN10CTestboard7InitDacEv
00011810 g     F .text	00000008 _ZN10CTestboard12GetSWVersionEv
00010ebc  w    F .text	00000010 _ZN4CUSBD2Ev
00007ac4 g     F .text	000000a0 _ZN10CTestboard18LoopInterruptResetEv
0002bd00 g     F .text	0000002c _ZNSt12system_errorD0Ev
0002bdb8 g     F .text	00000014 _ZNSt12future_errorD2Ev
0001658c g     F .text	00000008 _ZN10CTestboard23GetPixelAddressInvertedEv
0003947c g     F .text	0000000c _Unwind_GetLanguageSpecificData
0001c2c4 g     F .text	000006e4 _ZN10CTestboard16CalibrateDacScanEssssssRSt6vectorIsSaIsEERS0_IiSaIiEE
0002fd18 g     F .text	00000008 __cxa_guard_abort
0001144c g     F .text	00000044 _ZN10CTestboard15GetRpcTimestampERSs
00037ff0 g     F .text	0000002c _ZNSt16invalid_argumentD0Ev
00020b24 g     F .text	00000068 _Z21rpc__SignalProbeA1$vCR10rpcMessage
00020384 g     F .text	00000070 _Z18rpc__LLD_Write$vCCR10rpcMessage
00027160 g     F .text	000001ec _Z42rpc__LoopMultiRocOnePixelCalibrate$b1CCCSSR10rpcMessage
0002f40c  w    F .text	0000003c _ZNSsC1EPKcjRKSaIcE
0002a1e0 g     F .text	000000b8 __cxa_begin_catch
0002d82c  w    F .text	00000008 _ZNSs6assignESt16initializer_listIcE
00028f10 g     F .text	00000014 _ZN10__cxxabiv117__class_type_infoD2Ev
000280a4  w    F .text	00000010 _ZNSt6vectorIhSaIhEED1Ev
0000dcb8 g     F .text	0000006c _ZN10CTestboard30LoopMultiRocOnePixelDacDacScanERSt6vectorIhSaIhEEhhtthhhhhh
0002a180 g     F .text	00000014 _ZN10__cxxabiv112__unexpectedEPFvvE
0002c338  w    F .text	00000018 _ZNSsC2EOSs
000102b4 g     F .text	00000084 _Z4DumpPhj
0002fb5c g     F .text	0000002c _ZNSt17bad_function_callD0Ev
00049f0c  w    O .rodata	00000011 _ZTSSt12length_error
000143d4 g     F .text	00000010 _ZN10CTestboard9ADC_to_mVEj
00048e04  w    O .rodata	00000016 _ZTSSt17bad_function_call
000413b4 g     F .text	0000000c localeconv
00002540 g     F .text	0000002c clust2sect
0002fb48 g     F .text	00000014 _ZNSt17bad_function_callD1Ev
00045a08 g     F .text	000001c4 epcs_read_buffer
0002aee4 g     F .text	00000038 _ZSt16__throw_bad_castv
0001483c g     F .text	00000010 _ZN10CTestboard13SignalProbeD2Eh
0002fc1c g     F .text	00000014 _ZNSt13bad_exceptionD0Ev
00027bf8 g     F .text	00000294 _Z22rpc__TriggerRow$sss1ssR10rpcMessage
00043fb8 g     F .text	000001cc alt_epcs_flash_init
0004cd40 g     O .rwdata	00000004 _ZN10__cxxabiv119__terminate_handlerE
00037bf0 g     F .text	00000040 __gcclibcxx_demangle_callback
0004a068  w    O .rodata	00000014 _ZTVSt15underflow_error
00019aa4 g     F .text	000007b8 _ZN10CTestboard19ChipThresholdInternEPiiiiibbS0_
0002cc5c  w    F .text	0000007c _ZNKSs17find_first_not_ofERKSsj
000462fc g     F .text	00000004 alt_ic_isr_register
0002aab8 g     F .text	000000b0 __cxa_allocate_exception
0003a368 g     F .text	00000040 fwrite
0002fa20 g     F .text	0000002c _ZNSt11regex_errorD0Ev
000489b0  w    O .rodata	0000000c _ZTIN10__cxxabiv120__si_class_type_infoE
0002c404  w    F .text	0000000c _ZNKSsixEj
0002fc8c g     F .text	0000000c _ZSt15set_new_handlerPFvvE
0002dba8  w    F .text	0000004c _ZNSsaSEc
0004cdd0 g       *ABS*	00000000 _edata
00021900 g     F .text	000000c8 _Z14rpc__GetADC$SCR10rpcMessage
0001c9a8 g     F .text	00000a78 _ZN10CTestboard12CalibrateMapEsRSt6vectorIsSaIsEERS0_IiSaIiEERS0_IjSaIjEE
00004c18 g     F .text	000000dc f_utime
0002ceb0  w    F .text	00000058 _ZNKSs16find_last_not_ofEcj
0005e530 g       *ABS*	00000000 _end
0004cd78 g     O .rwdata	00000001 _ZSt7nothrow
000380c4 g     F .text	0000002c _ZNSt13runtime_errorD0Ev
000161dc g     F .text	00000024 _ZN10CTestboard8Daq_ReadER8HWvectorItEjh
00015f98 g     F .text	000000a4 _ZN10CTestboard11Daq_GetSizeEh
0004393c g     F .text	0000004c alt_flash_open_dev
00029958 g     F .text	00000510 __gxx_personality_sj0
0002c338  w    F .text	00000018 _ZNSsC1EOSs
00002da4 g     F .text	00000468 f_write
00044820 g     F .text	00000074 altera_avalon_jtag_uart_ioctl
00039d54 g     F .text	00000074 _fputs_r
00011a20 g     F .text	00000014 _ZN10CTestboard6SetLedEh
0001d9d0  w    F .text	0000018c _ZNSt6vectorIsSaIsEE13_M_insert_auxEN9__gnu_cxx17__normal_iteratorIPsS1_EERKs
00012f94 g     F .text	00000aa8 _ZN10CTestboard4InitEv
000486d4 g     O .rodata	00000014 rpc_timestamp
0000c56c g     F .text	00000c28 _ZN10CTestboard31LoopMultiRocAllPixelsDacDacScanERSt6vectorIhSaIhEEtthhhhhhhh
0002c390  w    F .text	00000008 _ZNKSs6cbeginEv
000154cc g     F .text	00000014 _ZN10CTestboard10tbm_EnableEb
00000000 g       *ABS*	00000000 __alt_mem_ram_ext
0001ff64 g     F .text	00000058 _Z16rpc__Pg_Single$vR10rpcMessage
0002fb88 g     F .text	00000010 _ZNSt9exceptionD1Ev
00010ce0 g     F .text	0000008c _Z15I2C_EEPROM_ReadPhh
0001b158 g     F .text	00000168 _ZN10CTestboard9Daq_Read2ERSt6vectorItSaItEEtRj
00046340 g     F .text	00000040 alt_ic_irq_disable
00045f50 g     F .text	00000078 epcs_enter_4_bytes_mode
00049e8c  w    O .rodata	0000000c _ZTINSt8ios_base7failureE
08402040 g     O .descriptor_memory	00000020 tx_descriptor_end
00021430 g     F .text	00000088 _Z18rpc__Pg_SetCmd$vSSR10rpcMessage
000453e0 g     F .text	00000150 alt_avalon_sgdma_construct_descriptor
000425c8 g     F .text	00000088 __swrite
0002ad7c g     F .text	000000f8 _Znwj
0002d8c0  w    F .text	0000002c _ZNSsaSESt16initializer_listIcE
0004cd8c g     O .rwdata	00000004 __malloc_trim_threshold
000025d4 g     F .text	000003b8 f_open
0004cd2c  w    O .rwdata	00000008 _ZTS6CRpcIo
000467d0 g     F .text	00000008 altera_nios2_qsys_irq_init
00020224 g     F .text	00000058 _Z18rpc__Sig_SetLCDS$vR10rpcMessage
000469c4 g     F .text	00000038 exit
00039420 g     F .text	0000001c _Unwind_SetGR
0002eb3c  w    F .text	00000008 _ZNSspLERKSs
0002be60 g     F .text	0000009c _ZNKSt12future_error4whatEv
000227ac g     F .text	000000c0 _Z18rpc__TBM_Present$bR10rpcMessage
0004122c g     F .text	000000b8 _fwalk_reent
0002a7a4 g     F .text	000000a0 _ZNK10__cxxabiv120__si_class_type_info20__do_find_public_srcEiPKvPKNS_17__class_type_infoES2_
00049fdc  w    O .rodata	00000014 _ZTVSt12domain_error
0002bb84 g     F .text	00000010 _ZNSt14error_categoryD2Ev
00041e64 g     F .text	000001a8 __mdiff
00043988 g     F .text	00000014 alt_flash_close_dev
0002a0a0 g     F .text	000000c4 _ZN10__cxxabiv111__terminateEPFvvE
0002e0e4  w    F .text	00000038 _ZNSs5frontEv
00020abc g     F .text	00000068 _Z21rpc__SignalProbeA2$vCR10rpcMessage
00009f84 g     F .text	00000ab8 _ZN10CTestboard28LoopMultiRocAllPixelsDacScanERSt6vectorIhSaIhEEtthhhh
0003917c g     F .text	0000005c __modsi3
0002c410  w    F .text	00000034 _ZNKSs2atEj
00037c7c g     F .text	00000014 _ZNSt9bad_allocD1Ev
0002ca20  w    F .text	00000044 _ZNKSs13find_first_ofEPKcj
0002cbd4  w    F .text	00000088 _ZNKSs17find_first_not_ofEPKcjj
08000000 g       *ABS*	00000000 __alt_data_end
00000120 g     F .exceptions	00000000 alt_exception
00040d3c g     F .text	00000004 __sfp_lock_release
00048e84  w    O .rodata	0000000c _ZTISt13bad_exception
0001b114 g     F .text	00000044 _ZN10CTestboard8Daq_ReadERSt6vectorItSaItEEjh
00011808 g     F .text	00000008 _ZN10CTestboard12GetFWVersionEv
00039c98 g     F .text	0000000c atoi
0002f208  w    F .text	00000068 _ZNSsC1ERKSsjjRKSaIcE
0004cd3c g     O .rwdata	00000002 rpc_cmdListSize
0004a996 g     O .rodata	00000101 _ctype_
00014ba4 g     F .text	00000084 _ZN10CTestboard11Pg_TriggersEjt
0004cdec g     O .bss	00000004 sgdma_rx_dev
0001e724  w    F .text	000002a0 _ZNSt6vectorIiSaIiEE14_M_fill_insertEN9__gnu_cxx17__normal_iteratorIPiS1_EEjRKi
00038030 g     F .text	0000002c _ZNSt12domain_errorD0Ev
00009b14 g     F .text	00000470 _ZN10CTestboard30LoopSingleRocOnePixelCalibrateEhhhtt
00010eac  w    F .text	00000010 _ZN6CRpcIoD1Ev
00023390 g     F .text	000000a0 _Z20rpc__Pg_Triggers$vISR10rpcMessage
0002c584  w    F .text	00000008 _ZNKSs5c_strEv
00004624 g     F .text	00000514 f_mkdir
00025084 g     F .text	000000cc _Z21rpc__GetRpcCallHash$IR10rpcMessage
0002c314  w    F .text	00000008 _ZNSs10_S_compareEjj
0004826c g     O .rodata	00000468 rpc_cmdlist
00042548 g     F .text	0000002c __isnand
00043928 g     F .text	00000014 _exit
00037df0 g     F .text	000000c8 _ZNSt8ios_base7failureC2ERKSs
000117e8 g     F .text	00000010 _ZN10CTestboard10GetBoardIdEv
000065b0 g     F .text	00000008 ffs_Init
0002d2a0  w    F .text	00000090 _ZNSs4_Rep9_S_createEjjRKSaIcE
0001efdc g     F .text	00000088 _Z8test_PUChhh
000147c0 g     F .text	00000024 _ZN10CTestboard7ResetOnEv
00046040 g     F .text	00000094 alt_alarm_start
0002d280  w    F .text	00000018 _ZNSs4_Rep26_M_set_length_and_sharableEj
0002b2e4 g     F .text	000000e4 _ZSt20__throw_out_of_rangePKc
00021348 g     F .text	00000074 _Z15rpc__Pg_Loop$vSR10rpcMessage
0002da74  w    F .text	00000064 _ZNSs6insertEN9__gnu_cxx17__normal_iteratorIPcSsEEc
0000d194 g     F .text	0000005c _ZN10CTestboard31LoopMultiRocAllPixelsDacDacScanERSt6vectorIhSaIhEEtthhhhhh
0000f0ec g     F .text	00000044 _ZN12CFlashMemory3SetEmm
000396e0 g     F .text	00000060 __muldi3
0001592c g     F .text	00000448 _ZN10CTestboard13Daq_FillLevelEv
000151b8 g     F .text	0000013c _ZN10CTestboard12roc_Col_MaskEh
00028d10 g     F .text	000000e8 _ZN4CDma4SendEv
000393ec g     F .text	0000001c _Unwind_GetGR
0002fca0 g     F .text	00000008 __cxa_get_globals
00016208 g     F .text	00000108 _ZN10CTestboard14Daq_Select_ADCEthhh
000413c0 g     F .text	000001a8 __smakebuf_r
0004cd7c g     O .rwdata	00000004 _ZN10__cxxabiv120__unexpected_handlerE
0002e940  w    F .text	0000003c _ZNSspLEPKc
0002e8f4  w    F .text	00000008 _ZNSs6appendESt16initializer_listIcE
0003c648 g     F .text	0000008c strlen
00045bcc g     F .text	00000038 epcs_write_enable
0002dcb8  w    F .text	00000060 _ZNSs5eraseEjj
0002b674 g     F .text	000000e4 _ZSt23__throw_underflow_errorPKc
0003b910 g     F .text	00000068 _init_signal_r
0004cd44  w    O .rwdata	00000008 _ZTISt9type_info
00046504 g     F .text	0000017c open
0002d248  w    F .text	0000000c _ZNSs4_Rep12_S_empty_repEv
0002d240  w    F .text	00000008 _ZNSs12_Alloc_hiderC1EPcRKSaIcE
00023168 g     F .text	000000b8 _Z19rpc__GetFWVersion$SR10rpcMessage
0002dad8  w    F .text	00000050 _ZNSs6insertEjjc
00038d90 g     F .text	00000064 __gedf2
0002db28  w    F .text	00000040 _ZNSs6assignEjc
0001731c g     F .text	000002b8 _ZN10CTestboard13DecodeReadoutERSt6vectorItSaItEERsS3_S3_S3_
00023ae4 g     F .text	00000168 _Z24rpc__GetRpcTimestamp$v4cR10rpcMessage
00048e60  w    O .rodata	0000000d _ZTSSt9exception
0004a02c  w    O .rodata	00000014 _ZTVSt13runtime_error
00014c8c g     F .text	0000007c _ZN10CTestboard10roc_ClrCalEv
00049e08  w    O .rodata	0000000f _ZTSSt10bad_typeid
0002c140  w    F .text	0000000c _ZNKSs6lengthEv
0002c2d4  w    F .text	00000020 _ZNSs13_S_copy_charsEPcS_S_
00024984 g     F .text	000000dc _Z19rpc__Daq_GetSize$ICR10rpcMessage
00037eb8 g     F .text	00000008 _ZNKSt11logic_error4whatEv
0000f42c g     F .text	000001d8 _ZN14CSRecordReader7GetHex2ERPKc
0002cd68  w    F .text	00000088 _ZNKSs16find_last_not_ofEPKcjj
0002ad34 g     F .text	00000048 __cxa_current_exception_type
0002f31c  w    F .text	000000f0 _ZNSs12_S_constructIPKcEEPcT_S3_RKSaIcESt20forward_iterator_tag
000080c0 g     F .text	00000208 _ZN10CTestboard13SetTrimValuesEhRSt6vectorIhSaIhEE
0002c71c  w    F .text	00000060 _ZNKSs4findEcj
0002fc08 g     F .text	00000014 _ZNSt9exceptionD0Ev
00023844 g     F .text	00000188 _Z13rpc__PH$iiiisR10rpcMessage
00048dd4  w    O .rodata	00000010 _ZTSSt11regex_error
0000aa3c g     F .text	00000040 _ZN10CTestboard28LoopMultiRocAllPixelsDacScanERSt6vectorIhSaIhEEtthhh
00047654 g     O .rodata	00000010 _ZN10CTestboard7MODCONFE
0001436c g     F .text	00000040 _ZN10CTestboard9mV_to_DACEi
0003be58 g     F .text	000000e8 strchr
00003df4 g     F .text	000002f4 f_getfree
00049e98  w    O .rodata	00000014 _ZTVNSt8ios_base7failureE
00037cc8 g     F .text	00000014 _ZNSt10bad_typeidD1Ev
00049d74  w    O .rodata	00000023 _ZTSN9__gnu_cxx20recursive_init_errorE
0002e324  w    F .text	0000005c _ZNSs2atEj
00039dc8 g     F .text	0000001c fputs
00010338 g     F .text	0000013c _Z10check_epcsv
00039498 g     F .text	00000008 _Unwind_GetDataRelBase
0002f720  w    F .text	00000024 _ZNSs7replaceEN9__gnu_cxx17__normal_iteratorIPcSsEES2_PKcS4_
0004cdc4 g     O .rwdata	00000004 alt_priority_mask
00015d74 g     F .text	00000018 _ZN10CTestboard8Daq_OpenEjh
00046300 g     F .text	00000040 alt_ic_irq_enable
0003ec44 g     F .text	00000024 __vfprintf_internal
0002c3dc  w    F .text	0000000c _ZNKSs8max_sizeEv
00011a84 g     F .text	00000008 _ZN10CTestboard17UpgradeGetVersionEv
00020614 g     F .text	00000078 _Z22rpc__roc_Pix_Trim$vCCCR10rpcMessage
00037d5c g     F .text	00000068 _ZNSt8ios_base7failureD1Ev
00044dcc g     F .text	00000124 alt_avalon_sgdma_construct_mem_to_mem_desc_burst
0002cd1c  w    F .text	0000004c _ZNKSs17find_first_not_ofEcj
0001d69c  w    F .text	0000018c _ZNSt6vectorItSaItEE13_M_insert_auxEN9__gnu_cxx17__normal_iteratorIPtS1_EERKt
00020cc4 g     F .text	00000068 _Z21rpc__Sig_SetOffset$vCR10rpcMessage
00037cc8 g     F .text	00000014 _ZNSt10bad_typeidD2Ev
00038898 g     F .text	00000060 __subdf3
00006a40 g     F .text	00000030 ffs_DiskIOInit
0002d46c  w    F .text	00000008 _ZNSs4_Rep10_M_destroyERKSaIcE
00011cb8 g     F .text	00000018 _ZN10CTestboard6cDelayEt
0002f98c  w    F .text	00000060 _ZNSsC2EPKcRKSaIcE
00044548 g     F .text	00000074 alt_epcs_flash_read
00018004 g     F .text	00000094 _ZN10CTestboard13CountReadoutsEiii
0002d298  w    F .text	00000008 _ZNSs4_Rep10_M_refdataEv
00021c68 g     F .text	00000138 _Z50rpc__LoopSingleRocAllPixelsDacDacScan$bCSSCCCCCCCCR10rpcMessage
000418b8 g     F .text	000000b0 __lo0bits
00024b68 g     F .text	00000158 _Z23rpc__CountReadouts$iiiiR10rpcMessage
0002e20c  w    F .text	00000084 _ZNSs6rbeginEv
0004cdc8 g     O .rwdata	00000008 alt_alarm_list
000461a0 g     F .text	00000064 _do_ctors
0003bbc4 g     F .text	00000014 __sigtramp
00049f00  w    O .rodata	0000000c _ZTISt16invalid_argument
0002c9a4  w    F .text	0000007c _ZNKSs13find_first_ofERKSsj
0002fca8 g     F .text	00000070 __cxa_guard_acquire
0001ed08 g     F .text	000001f4 _Z8GetPixelj
0002f0a0  w    F .text	0000003c _ZNSsC2IN9__gnu_cxx17__normal_iteratorIPcSsEEEET_S4_RKSaIcE
0002c20c  w    F .text	00000020 _ZNKSs11_M_disjunctEPKc
0001637c g     F .text	0000006c _ZN10CTestboard19Daq_Select_Deser160Eh
00043800 g     F .text	000000e0 close
0002c4fc  w    F .text	00000030 _ZNSs4swapERSs
0004cd4c  w    O .rwdata	00000008 _ZTISt14error_category
00014c50 g     F .text	0000003c _ZN10CTestboard11roc_I2cAddrEh
0002011c g     F .text	00000058 _Z11rpc__HVon$vR10rpcMessage
0001495c g     F .text	00000178 _ZN10CTestboard14SignalProbeADCEhh
0002f8f0  w    F .text	00000024 _ZNSs7replaceEN9__gnu_cxx17__normal_iteratorIPcSsEES2_St16initializer_listIcE
00048e90  w    O .rodata	00000020 _ZTSN10__cxxabiv115__forced_unwindE
00028094  w    F .text	00000010 _ZNSt6vectorIiSaIiEED2Ev
000381b0 g     F .text	000000a8 _ZNSt11logic_errorC1ERKSs
00020774 g     F .text	00000068 _Z19rpc__roc_I2cAddr$vCR10rpcMessage
000397ec g     F .text	00000224 __pack_d
0002b818 g     F .text	0000013c _ZSt20__throw_system_errori
0002c328  w    F .text	00000010 _ZNSsC1Ev
0002aa58 g     F .text	0000004c _ZNKSt9type_info10__do_catchEPKS_PPvj
00037c30 g     F .text	00000014 _ZN9__gnu_cxx20recursive_init_errorD2Ev
000456e8 g     F .text	00000084 alt_avalon_sgdma_init
00028094  w    F .text	00000010 _ZNSt6vectorIiSaIiEED1Ev
0003bb84 g     F .text	00000014 raise
0003828c g     F .text	00000034 _ZNSt16invalid_argumentC2ERKSs
0003a3bc g     F .text	00000014 free
00040d40 g     F .text	00000004 __sinit_lock_acquire
00045ca0 g     F .text	00000204 epcs_write_buffer
0002a4d4 g     F .text	00000290 _ZN9__gnu_cxx27__verbose_terminate_handlerEv
000382c0 g     F .text	00000034 _ZNSt12length_errorC2ERKSs
00041638 g     F .text	00000114 __multadd
00028f24 g     F .text	0000002c _ZN10__cxxabiv117__class_type_infoD0Ev
00041610 g     F .text	00000028 _Bfree
0002188c g     F .text	00000074 _Z19rpc__UpgradeExec$vSR10rpcMessage
000226d8 g     F .text	000000d4 _Z17rpc__tbm_Get$bC0CR10rpcMessage
0002e7e0  w    F .text	00000114 _ZNSs6appendEPKcj
00014d08 g     F .text	00000094 _ZN10CTestboard10roc_SetDACEhh
00038328 g     F .text	000000a8 _ZNSt13runtime_errorC1ERKSs
00020fb4 g     F .text	00000068 _Z31rpc__SetPixelAddressInverted$vbR10rpcMessage



Disassembly of section .exceptions:

00000120 <alt_exception>:
 120:	deffed04 	addi	sp,sp,-76
 124:	dfc00015 	stw	ra,0(sp)
 128:	d8400215 	stw	at,8(sp)
 12c:	d8800315 	stw	r2,12(sp)
 130:	d8c00415 	stw	r3,16(sp)
 134:	d9000515 	stw	r4,20(sp)
 138:	d9400615 	stw	r5,24(sp)
 13c:	d9800715 	stw	r6,28(sp)
 140:	d9c00815 	stw	r7,32(sp)
 144:	000b307a 	rdctl	r5,estatus
 148:	da000915 	stw	r8,36(sp)
 14c:	da400a15 	stw	r9,40(sp)
 150:	da800b15 	stw	r10,44(sp)
 154:	dac00c15 	stw	r11,48(sp)
 158:	db000d15 	stw	r12,52(sp)
 15c:	db400e15 	stw	r13,56(sp)
 160:	db800f15 	stw	r14,60(sp)
 164:	dbc01015 	stw	r15,64(sp)
 168:	d9401115 	stw	r5,68(sp)
 16c:	ebffff04 	addi	r15,ea,-4
 170:	dbc01215 	stw	r15,72(sp)
 174:	0009313a 	rdctl	r4,ipending
 178:	2880004c 	andi	r2,r5,1
 17c:	10000326 	beq	r2,zero,18c <alt_exception+0x6c>
 180:	20000226 	beq	r4,zero,18c <alt_exception+0x6c>
 184:	00001ec0 	call	1ec <alt_irq_handler>
 188:	00000306 	br	198 <alt_exception_unknown+0x4>
 18c:	df401215 	stw	ea,72(sp)
 190:	e8bfff17 	ldw	r2,-4(ea)

00000194 <alt_exception_unknown>:
 194:	003da03a 	break	0
 198:	d9401117 	ldw	r5,68(sp)
 19c:	df401217 	ldw	ea,72(sp)
 1a0:	dfc00017 	ldw	ra,0(sp)
 1a4:	2801707a 	wrctl	estatus,r5
 1a8:	d8400217 	ldw	at,8(sp)
 1ac:	d8800317 	ldw	r2,12(sp)
 1b0:	d8c00417 	ldw	r3,16(sp)
 1b4:	d9000517 	ldw	r4,20(sp)
 1b8:	d9400617 	ldw	r5,24(sp)
 1bc:	d9800717 	ldw	r6,28(sp)
 1c0:	d9c00817 	ldw	r7,32(sp)
 1c4:	da000917 	ldw	r8,36(sp)
 1c8:	da400a17 	ldw	r9,40(sp)
 1cc:	da800b17 	ldw	r10,44(sp)
 1d0:	dac00c17 	ldw	r11,48(sp)
 1d4:	db000d17 	ldw	r12,52(sp)
 1d8:	db400e17 	ldw	r13,56(sp)
 1dc:	db800f17 	ldw	r14,60(sp)
 1e0:	dbc01017 	ldw	r15,64(sp)
 1e4:	dec01304 	addi	sp,sp,76
 1e8:	ef80083a 	eret

000001ec <alt_irq_handler>:
 1ec:	defffe04 	addi	sp,sp,-8
 1f0:	dfc00115 	stw	ra,4(sp)
 1f4:	dc000015 	stw	r16,0(sp)
 1f8:	000b313a 	rdctl	r5,ipending
 1fc:	040001b4 	movhi	r16,6
 200:	84390c04 	addi	r16,r16,-7120
 204:	2880004c 	andi	r2,r5,1
 208:	0007883a 	mov	r3,zero
 20c:	1000051e 	bne	r2,zero,224 <alt_irq_handler+0x38>
 210:	00800044 	movi	r2,1
 214:	1085883a 	add	r2,r2,r2
 218:	2888703a 	and	r4,r5,r2
 21c:	18c00044 	addi	r3,r3,1
 220:	203ffc26 	beq	r4,zero,214 <alt_irq_handler+0x28>
 224:	180690fa 	slli	r3,r3,3
 228:	80c7883a 	add	r3,r16,r3
 22c:	18800017 	ldw	r2,0(r3)
 230:	19000117 	ldw	r4,4(r3)
 234:	103ee83a 	callr	r2
 238:	000b313a 	rdctl	r5,ipending
 23c:	283ff11e 	bne	r5,zero,204 <alt_irq_handler+0x18>
 240:	dfc00117 	ldw	ra,4(sp)
 244:	dc000017 	ldw	r16,0(sp)
 248:	dec00204 	addi	sp,sp,8
 24c:	f800283a 	ret

Disassembly of section .text:

00000250 <_start>:
     250:	00840014 	movui	r2,4096
     254:	10000033 	initd	0(r2)
     258:	10bff804 	addi	r2,r2,-32
     25c:	00bffd16 	blt	zero,r2,254 <_start+0x4>
     260:	06c20034 	movhi	sp,2048
     264:	dec00014 	ori	sp,sp,0
     268:	06800174 	movhi	gp,5
     26c:	d6934614 	ori	gp,gp,19736
     270:	00800134 	movhi	r2,4
     274:	10b37414 	ori	r2,r2,52688
     278:	00c00174 	movhi	r3,5
     27c:	18f94c14 	ori	r3,r3,58672
     280:	10c00326 	beq	r2,r3,290 <_start+0x40>
     284:	10000015 	stw	zero,0(r2)
     288:	10800104 	addi	r2,r2,4
     28c:	10fffd36 	bltu	r2,r3,284 <_start+0x34>
     290:	0043c380 	call	43c38 <alt_main>

00000294 <alt_after_alt_main>:
     294:	003fff06 	br	294 <alt_after_alt_main>

00000298 <get_fileinfo>:
     298:	20800417 	ldw	r2,16(r4)
     29c:	28c00244 	addi	r3,r5,9
     2a0:	10008326 	beq	r2,zero,4b0 <get_fileinfo+0x218>
     2a4:	20800517 	ldw	r2,20(r4)
     2a8:	01c00804 	movi	r7,32
     2ac:	11000003 	ldbu	r4,0(r2)
     2b0:	21803fcc 	andi	r6,r4,255
     2b4:	3180201c 	xori	r6,r6,128
     2b8:	31bfe004 	addi	r6,r6,-128
     2bc:	31c04a26 	beq	r6,r7,3e8 <get_fileinfo+0x150>
     2c0:	00c00144 	movi	r3,5
     2c4:	30c07c26 	beq	r6,r3,4b8 <get_fileinfo+0x220>
     2c8:	29000245 	stb	r4,9(r5)
     2cc:	11000043 	ldbu	r4,1(r2)
     2d0:	01c00804 	movi	r7,32
     2d4:	28c00284 	addi	r3,r5,10
     2d8:	21803fcc 	andi	r6,r4,255
     2dc:	3180201c 	xori	r6,r6,128
     2e0:	31bfe004 	addi	r6,r6,-128
     2e4:	31c04026 	beq	r6,r7,3e8 <get_fileinfo+0x150>
     2e8:	00c00144 	movi	r3,5
     2ec:	30c07426 	beq	r6,r3,4c0 <get_fileinfo+0x228>
     2f0:	29000285 	stb	r4,10(r5)
     2f4:	11000083 	ldbu	r4,2(r2)
     2f8:	01c00804 	movi	r7,32
     2fc:	28c002c4 	addi	r3,r5,11
     300:	21803fcc 	andi	r6,r4,255
     304:	3180201c 	xori	r6,r6,128
     308:	31bfe004 	addi	r6,r6,-128
     30c:	31c03626 	beq	r6,r7,3e8 <get_fileinfo+0x150>
     310:	00c00144 	movi	r3,5
     314:	30c06c26 	beq	r6,r3,4c8 <get_fileinfo+0x230>
     318:	290002c5 	stb	r4,11(r5)
     31c:	110000c3 	ldbu	r4,3(r2)
     320:	01c00804 	movi	r7,32
     324:	28c00304 	addi	r3,r5,12
     328:	21803fcc 	andi	r6,r4,255
     32c:	3180201c 	xori	r6,r6,128
     330:	31bfe004 	addi	r6,r6,-128
     334:	31c02c26 	beq	r6,r7,3e8 <get_fileinfo+0x150>
     338:	00c00144 	movi	r3,5
     33c:	30c06426 	beq	r6,r3,4d0 <get_fileinfo+0x238>
     340:	29000305 	stb	r4,12(r5)
     344:	11000103 	ldbu	r4,4(r2)
     348:	01c00804 	movi	r7,32
     34c:	28c00344 	addi	r3,r5,13
     350:	21803fcc 	andi	r6,r4,255
     354:	3180201c 	xori	r6,r6,128
     358:	31bfe004 	addi	r6,r6,-128
     35c:	31c02226 	beq	r6,r7,3e8 <get_fileinfo+0x150>
     360:	00c00144 	movi	r3,5
     364:	30c06426 	beq	r6,r3,4f8 <get_fileinfo+0x260>
     368:	29000345 	stb	r4,13(r5)
     36c:	11000143 	ldbu	r4,5(r2)
     370:	01c00804 	movi	r7,32
     374:	28c00384 	addi	r3,r5,14
     378:	21803fcc 	andi	r6,r4,255
     37c:	3180201c 	xori	r6,r6,128
     380:	31bfe004 	addi	r6,r6,-128
     384:	31c01826 	beq	r6,r7,3e8 <get_fileinfo+0x150>
     388:	00c00144 	movi	r3,5
     38c:	30c05c26 	beq	r6,r3,500 <get_fileinfo+0x268>
     390:	29000385 	stb	r4,14(r5)
     394:	11000183 	ldbu	r4,6(r2)
     398:	01c00804 	movi	r7,32
     39c:	28c003c4 	addi	r3,r5,15
     3a0:	21803fcc 	andi	r6,r4,255
     3a4:	3180201c 	xori	r6,r6,128
     3a8:	31bfe004 	addi	r6,r6,-128
     3ac:	31c00e26 	beq	r6,r7,3e8 <get_fileinfo+0x150>
     3b0:	00c00144 	movi	r3,5
     3b4:	30c05426 	beq	r6,r3,508 <get_fileinfo+0x270>
     3b8:	290003c5 	stb	r4,15(r5)
     3bc:	110001c3 	ldbu	r4,7(r2)
     3c0:	01c00804 	movi	r7,32
     3c4:	28c00404 	addi	r3,r5,16
     3c8:	21803fcc 	andi	r6,r4,255
     3cc:	3180201c 	xori	r6,r6,128
     3d0:	31bfe004 	addi	r6,r6,-128
     3d4:	31c00426 	beq	r6,r7,3e8 <get_fileinfo+0x150>
     3d8:	00c00144 	movi	r3,5
     3dc:	30c04c26 	beq	r6,r3,510 <get_fileinfo+0x278>
     3e0:	29000405 	stb	r4,16(r5)
     3e4:	28c00444 	addi	r3,r5,17
     3e8:	11800203 	ldbu	r6,8(r2)
     3ec:	01000804 	movi	r4,32
     3f0:	31001826 	beq	r6,r4,454 <get_fileinfo+0x1bc>
     3f4:	01800b84 	movi	r6,46
     3f8:	19800005 	stb	r6,0(r3)
     3fc:	11800203 	ldbu	r6,8(r2)
     400:	1a000044 	addi	r8,r3,1
     404:	31c03fcc 	andi	r7,r6,255
     408:	39c0201c 	xori	r7,r7,128
     40c:	39ffe004 	addi	r7,r7,-128
     410:	39004126 	beq	r7,r4,518 <get_fileinfo+0x280>
     414:	19800045 	stb	r6,1(r3)
     418:	11800243 	ldbu	r6,9(r2)
     41c:	1a000084 	addi	r8,r3,2
     420:	31c03fcc 	andi	r7,r6,255
     424:	39c0201c 	xori	r7,r7,128
     428:	39ffe004 	addi	r7,r7,-128
     42c:	39003a26 	beq	r7,r4,518 <get_fileinfo+0x280>
     430:	19800085 	stb	r6,2(r3)
     434:	11800283 	ldbu	r6,10(r2)
     438:	1a0000c4 	addi	r8,r3,3
     43c:	31c03fcc 	andi	r7,r6,255
     440:	39c0201c 	xori	r7,r7,128
     444:	39ffe004 	addi	r7,r7,-128
     448:	39003326 	beq	r7,r4,518 <get_fileinfo+0x280>
     44c:	198000c5 	stb	r6,3(r3)
     450:	18c00104 	addi	r3,r3,4
     454:	110002c3 	ldbu	r4,11(r2)
     458:	29000205 	stb	r4,8(r5)
     45c:	110007c3 	ldbu	r4,31(r2)
     460:	12000783 	ldbu	r8,30(r2)
     464:	11800743 	ldbu	r6,29(r2)
     468:	2008963a 	slli	r4,r4,24
     46c:	4010943a 	slli	r8,r8,16
     470:	11c00703 	ldbu	r7,28(r2)
     474:	300c923a 	slli	r6,r6,8
     478:	2208b03a 	or	r4,r4,r8
     47c:	21c8b03a 	or	r4,r4,r7
     480:	2188b03a 	or	r4,r4,r6
     484:	29000015 	stw	r4,0(r5)
     488:	11000643 	ldbu	r4,25(r2)
     48c:	11800603 	ldbu	r6,24(r2)
     490:	2008923a 	slli	r4,r4,8
     494:	2188b03a 	or	r4,r4,r6
     498:	2900010d 	sth	r4,4(r5)
     49c:	118005c3 	ldbu	r6,23(r2)
     4a0:	11000583 	ldbu	r4,22(r2)
     4a4:	3004923a 	slli	r2,r6,8
     4a8:	1104b03a 	or	r2,r2,r4
     4ac:	2880018d 	sth	r2,6(r5)
     4b0:	18000005 	stb	zero,0(r3)
     4b4:	f800283a 	ret
     4b8:	013ff944 	movi	r4,-27
     4bc:	003f8206 	br	2c8 <get_fileinfo+0x30>
     4c0:	013ff944 	movi	r4,-27
     4c4:	003f8a06 	br	2f0 <get_fileinfo+0x58>
     4c8:	013ff944 	movi	r4,-27
     4cc:	003f9206 	br	318 <get_fileinfo+0x80>
     4d0:	013ff944 	movi	r4,-27
     4d4:	29000305 	stb	r4,12(r5)
     4d8:	11000103 	ldbu	r4,4(r2)
     4dc:	01c00804 	movi	r7,32
     4e0:	28c00344 	addi	r3,r5,13
     4e4:	21803fcc 	andi	r6,r4,255
     4e8:	3180201c 	xori	r6,r6,128
     4ec:	31bfe004 	addi	r6,r6,-128
     4f0:	31ff9b1e 	bne	r6,r7,360 <get_fileinfo+0xc8>
     4f4:	003fbc06 	br	3e8 <get_fileinfo+0x150>
     4f8:	013ff944 	movi	r4,-27
     4fc:	003f9a06 	br	368 <get_fileinfo+0xd0>
     500:	013ff944 	movi	r4,-27
     504:	003fa206 	br	390 <get_fileinfo+0xf8>
     508:	013ff944 	movi	r4,-27
     50c:	003faa06 	br	3b8 <get_fileinfo+0x120>
     510:	013ff944 	movi	r4,-27
     514:	003fb206 	br	3e0 <get_fileinfo+0x148>
     518:	4007883a 	mov	r3,r8
     51c:	003fcd06 	br	454 <get_fileinfo+0x1bc>

00000520 <move_window>:
     520:	defff904 	addi	sp,sp,-28
     524:	dc400115 	stw	r17,4(sp)
     528:	24400c17 	ldw	r17,48(r4)
     52c:	dc800215 	stw	r18,8(sp)
     530:	dc000015 	stw	r16,0(sp)
     534:	dfc00615 	stw	ra,24(sp)
     538:	dd400515 	stw	r21,20(sp)
     53c:	dd000415 	stw	r20,16(sp)
     540:	dcc00315 	stw	r19,12(sp)
     544:	2021883a 	mov	r16,r4
     548:	2825883a 	mov	r18,r5
     54c:	89400326 	beq	r17,r5,55c <move_window+0x3c>
     550:	20800103 	ldbu	r2,4(r4)
     554:	1000131e 	bne	r2,zero,5a4 <move_window+0x84>
     558:	90000a1e 	bne	r18,zero,584 <move_window+0x64>
     55c:	0005883a 	mov	r2,zero
     560:	dfc00617 	ldw	ra,24(sp)
     564:	dd400517 	ldw	r21,20(sp)
     568:	dd000417 	ldw	r20,16(sp)
     56c:	dcc00317 	ldw	r19,12(sp)
     570:	dc800217 	ldw	r18,8(sp)
     574:	dc400117 	ldw	r17,4(sp)
     578:	dc000017 	ldw	r16,0(sp)
     57c:	dec00704 	addi	sp,sp,28
     580:	f800283a 	ret
     584:	81000043 	ldbu	r4,1(r16)
     588:	81400d04 	addi	r5,r16,52
     58c:	900d883a 	mov	r6,r18
     590:	01c00044 	movi	r7,1
     594:	0006da00 	call	6da0 <ffs_DiskIORead>
     598:	10001f1e 	bne	r2,zero,618 <move_window+0xf8>
     59c:	84800c15 	stw	r18,48(r16)
     5a0:	003fef06 	br	560 <move_window+0x40>
     5a4:	21000043 	ldbu	r4,1(r4)
     5a8:	85000d04 	addi	r20,r16,52
     5ac:	05400044 	movi	r21,1
     5b0:	a00b883a 	mov	r5,r20
     5b4:	880d883a 	mov	r6,r17
     5b8:	a80f883a 	mov	r7,r21
     5bc:	0006fbc0 	call	6fbc <ffs_DiskIOWrite>
     5c0:	1000151e 	bne	r2,zero,618 <move_window+0xf8>
     5c4:	80800817 	ldw	r2,32(r16)
     5c8:	80c00917 	ldw	r3,36(r16)
     5cc:	80000105 	stb	zero,4(r16)
     5d0:	10c7883a 	add	r3,r2,r3
     5d4:	88ffe02e 	bgeu	r17,r3,558 <move_window+0x38>
     5d8:	84c000c3 	ldbu	r19,3(r16)
     5dc:	98c03fcc 	andi	r3,r19,255
     5e0:	a8c00236 	bltu	r21,r3,5ec <move_window+0xcc>
     5e4:	003fdc06 	br	558 <move_window+0x38>
     5e8:	80800817 	ldw	r2,32(r16)
     5ec:	81000043 	ldbu	r4,1(r16)
     5f0:	88a3883a 	add	r17,r17,r2
     5f4:	a00b883a 	mov	r5,r20
     5f8:	880d883a 	mov	r6,r17
     5fc:	01c00044 	movi	r7,1
     600:	9cffffc4 	addi	r19,r19,-1
     604:	0006fbc0 	call	6fbc <ffs_DiskIOWrite>
     608:	98803fcc 	andi	r2,r19,255
     60c:	157ff61e 	bne	r2,r21,5e8 <move_window+0xc8>
     610:	903fd226 	beq	r18,zero,55c <move_window+0x3c>
     614:	003fdb06 	br	584 <move_window+0x64>
     618:	00800044 	movi	r2,1
     61c:	003fd006 	br	560 <move_window+0x40>

00000620 <sync>:
     620:	defffa04 	addi	sp,sp,-24
     624:	dc400115 	stw	r17,4(sp)
     628:	24400c17 	ldw	r17,48(r4)
     62c:	dc000015 	stw	r16,0(sp)
     630:	dfc00515 	stw	ra,20(sp)
     634:	dd000415 	stw	r20,16(sp)
     638:	dcc00315 	stw	r19,12(sp)
     63c:	dc800215 	stw	r18,8(sp)
     640:	2021883a 	mov	r16,r4
     644:	88000226 	beq	r17,zero,650 <sync+0x30>
     648:	20800103 	ldbu	r2,4(r4)
     64c:	1000101e 	bne	r2,zero,690 <sync+0x70>
     650:	80c00003 	ldbu	r3,0(r16)
     654:	008000c4 	movi	r2,3
     658:	18802b26 	beq	r3,r2,708 <sync+0xe8>
     65c:	81000043 	ldbu	r4,1(r16)
     660:	000b883a 	mov	r5,zero
     664:	000d883a 	mov	r6,zero
     668:	000738c0 	call	738c <ffs_DiskIOIoctl>
     66c:	1004c03a 	cmpne	r2,r2,zero
     670:	dfc00517 	ldw	ra,20(sp)
     674:	dd000417 	ldw	r20,16(sp)
     678:	dcc00317 	ldw	r19,12(sp)
     67c:	dc800217 	ldw	r18,8(sp)
     680:	dc400117 	ldw	r17,4(sp)
     684:	dc000017 	ldw	r16,0(sp)
     688:	dec00604 	addi	sp,sp,24
     68c:	f800283a 	ret
     690:	21000043 	ldbu	r4,1(r4)
     694:	84c00d04 	addi	r19,r16,52
     698:	05000044 	movi	r20,1
     69c:	980b883a 	mov	r5,r19
     6a0:	880d883a 	mov	r6,r17
     6a4:	a00f883a 	mov	r7,r20
     6a8:	0006fbc0 	call	6fbc <ffs_DiskIOWrite>
     6ac:	1000141e 	bne	r2,zero,700 <sync+0xe0>
     6b0:	80c00817 	ldw	r3,32(r16)
     6b4:	80800917 	ldw	r2,36(r16)
     6b8:	80000105 	stb	zero,4(r16)
     6bc:	1885883a 	add	r2,r3,r2
     6c0:	88bfe32e 	bgeu	r17,r2,650 <sync+0x30>
     6c4:	848000c3 	ldbu	r18,3(r16)
     6c8:	90803fcc 	andi	r2,r18,255
     6cc:	a0800236 	bltu	r20,r2,6d8 <sync+0xb8>
     6d0:	003fdf06 	br	650 <sync+0x30>
     6d4:	80c00817 	ldw	r3,32(r16)
     6d8:	81000043 	ldbu	r4,1(r16)
     6dc:	88e3883a 	add	r17,r17,r3
     6e0:	980b883a 	mov	r5,r19
     6e4:	880d883a 	mov	r6,r17
     6e8:	01c00044 	movi	r7,1
     6ec:	94bfffc4 	addi	r18,r18,-1
     6f0:	0006fbc0 	call	6fbc <ffs_DiskIOWrite>
     6f4:	90c03fcc 	andi	r3,r18,255
     6f8:	1d3ff61e 	bne	r3,r20,6d4 <sync+0xb4>
     6fc:	003fd406 	br	650 <sync+0x30>
     700:	a005883a 	mov	r2,r20
     704:	003fda06 	br	670 <sync+0x50>
     708:	80800143 	ldbu	r2,5(r16)
     70c:	103fd326 	beq	r2,zero,65c <sync+0x3c>
     710:	81400d04 	addi	r5,r16,52
     714:	80000c15 	stw	zero,48(r16)
     718:	2805883a 	mov	r2,r5
     71c:	80c08d04 	addi	r3,r16,564
     720:	10000015 	stw	zero,0(r2)
     724:	10800104 	addi	r2,r2,4
     728:	10fffd1e 	bne	r2,r3,720 <sync+0x100>
     72c:	80c00417 	ldw	r3,16(r16)
     730:	80800317 	ldw	r2,12(r16)
     734:	04801544 	movi	r18,85
     738:	1822d23a 	srli	r17,r3,8
     73c:	181ed43a 	srli	r15,r3,16
     740:	181cd63a 	srli	r14,r3,24
     744:	101ad23a 	srli	r13,r2,8
     748:	1018d43a 	srli	r12,r2,16
     74c:	1016d63a 	srli	r11,r2,24
     750:	81000043 	ldbu	r4,1(r16)
     754:	81800517 	ldw	r6,20(r16)
     758:	02801484 	movi	r10,82
     75c:	01c01844 	movi	r7,97
     760:	02001044 	movi	r8,65
     764:	02401c84 	movi	r9,114
     768:	84808c85 	stb	r18,562(r16)
     76c:	04bfea84 	movi	r18,-86
     770:	81c00d85 	stb	r7,54(r16)
     774:	81c086c5 	stb	r7,539(r16)
     778:	84808cc5 	stb	r18,563(r16)
     77c:	82800d05 	stb	r10,52(r16)
     780:	82800d45 	stb	r10,53(r16)
     784:	82000dc5 	stb	r8,55(r16)
     788:	82408605 	stb	r9,536(r16)
     78c:	82408645 	stb	r9,537(r16)
     790:	82008685 	stb	r8,538(r16)
     794:	80c08705 	stb	r3,540(r16)
     798:	84408745 	stb	r17,541(r16)
     79c:	83c08785 	stb	r15,542(r16)
     7a0:	838087c5 	stb	r14,543(r16)
     7a4:	80808805 	stb	r2,544(r16)
     7a8:	83408845 	stb	r13,545(r16)
     7ac:	83008885 	stb	r12,546(r16)
     7b0:	82c088c5 	stb	r11,547(r16)
     7b4:	01c00044 	movi	r7,1
     7b8:	0006fbc0 	call	6fbc <ffs_DiskIOWrite>
     7bc:	80000145 	stb	zero,5(r16)
     7c0:	003fa606 	br	65c <sync+0x3c>

000007c4 <chk_mounted>:
     7c4:	20c00017 	ldw	r3,0(r4)
     7c8:	defff804 	addi	sp,sp,-32
     7cc:	dfc00715 	stw	ra,28(sp)
     7d0:	dd400615 	stw	r21,24(sp)
     7d4:	dd000515 	stw	r20,20(sp)
     7d8:	dcc00415 	stw	r19,16(sp)
     7dc:	dc800315 	stw	r18,12(sp)
     7e0:	dc400215 	stw	r17,8(sp)
     7e4:	dc000115 	stw	r16,4(sp)
     7e8:	18800007 	ldb	r2,0(r3)
     7ec:	01c00244 	movi	r7,9
     7f0:	10bff404 	addi	r2,r2,-48
     7f4:	38800336 	bltu	r7,r2,804 <chk_mounted+0x40>
     7f8:	1a000047 	ldb	r8,1(r3)
     7fc:	01c00e84 	movi	r7,58
     800:	41c01e26 	beq	r8,r7,87c <chk_mounted+0xb8>
     804:	d0a02f03 	ldbu	r2,-32580(gp)
     808:	10000a26 	beq	r2,zero,834 <chk_mounted+0x70>
     80c:	008002c4 	movi	r2,11
     810:	dfc00717 	ldw	ra,28(sp)
     814:	dd400617 	ldw	r21,24(sp)
     818:	dd000517 	ldw	r20,20(sp)
     81c:	dcc00417 	ldw	r19,16(sp)
     820:	dc800317 	ldw	r18,12(sp)
     824:	dc400217 	ldw	r17,8(sp)
     828:	dc000117 	ldw	r16,4(sp)
     82c:	dec00804 	addi	sp,sp,32
     830:	f800283a 	ret
     834:	d4202e17 	ldw	r16,-32584(gp)
     838:	2c000015 	stw	r16,0(r5)
     83c:	80001c26 	beq	r16,zero,8b0 <chk_mounted+0xec>
     840:	80800003 	ldbu	r2,0(r16)
     844:	10001026 	beq	r2,zero,888 <chk_mounted+0xc4>
     848:	81000043 	ldbu	r4,1(r16)
     84c:	d9800015 	stw	r6,0(sp)
     850:	0006d980 	call	6d98 <ffs_DiskIOStatus>
     854:	10c0004c 	andi	r3,r2,1
     858:	d9800017 	ldw	r6,0(sp)
     85c:	18000a1e 	bne	r3,zero,888 <chk_mounted+0xc4>
     860:	31803fcc 	andi	r6,r6,255
     864:	30002826 	beq	r6,zero,908 <chk_mounted+0x144>
     868:	1080010c 	andi	r2,r2,4
     86c:	10803fcc 	andi	r2,r2,255
     870:	10002526 	beq	r2,zero,908 <chk_mounted+0x144>
     874:	00800284 	movi	r2,10
     878:	003fe506 	br	810 <chk_mounted+0x4c>
     87c:	18c00084 	addi	r3,r3,2
     880:	20c00015 	stw	r3,0(r4)
     884:	003fe006 	br	808 <chk_mounted+0x44>
     888:	80000005 	stb	zero,0(r16)
     88c:	80000045 	stb	zero,1(r16)
     890:	0009883a 	mov	r4,zero
     894:	d9800015 	stw	r6,0(sp)
     898:	0006ab80 	call	6ab8 <ffs_DiskIOInitialize>
     89c:	10c0004c 	andi	r3,r2,1
     8a0:	d9800017 	ldw	r6,0(sp)
     8a4:	18000426 	beq	r3,zero,8b8 <chk_mounted+0xf4>
     8a8:	008000c4 	movi	r2,3
     8ac:	003fd806 	br	810 <chk_mounted+0x4c>
     8b0:	00800304 	movi	r2,12
     8b4:	003fd606 	br	810 <chk_mounted+0x4c>
     8b8:	31803fcc 	andi	r6,r6,255
     8bc:	30000326 	beq	r6,zero,8cc <chk_mounted+0x108>
     8c0:	1080010c 	andi	r2,r2,4
     8c4:	10803fcc 	andi	r2,r2,255
     8c8:	103fea1e 	bne	r2,zero,874 <chk_mounted+0xb0>
     8cc:	81000043 	ldbu	r4,1(r16)
     8d0:	84400d04 	addi	r17,r16,52
     8d4:	880b883a 	mov	r5,r17
     8d8:	000d883a 	mov	r6,zero
     8dc:	01c00044 	movi	r7,1
     8e0:	0006da00 	call	6da0 <ffs_DiskIORead>
     8e4:	10008126 	beq	r2,zero,aec <chk_mounted+0x328>
     8e8:	008000c4 	movi	r2,3
     8ec:	0025883a 	mov	r18,zero
     8f0:	10803fcc 	andi	r2,r2,255
     8f4:	00c000c4 	movi	r3,3
     8f8:	10c08726 	beq	r2,r3,b18 <chk_mounted+0x354>
     8fc:	10000526 	beq	r2,zero,914 <chk_mounted+0x150>
     900:	00800344 	movi	r2,13
     904:	003fc206 	br	810 <chk_mounted+0x4c>
     908:	0005883a 	mov	r2,zero
     90c:	003fc006 	br	810 <chk_mounted+0x4c>
     910:	0025883a 	mov	r18,zero
     914:	80c01003 	ldbu	r3,64(r16)
     918:	80800fc3 	ldbu	r2,63(r16)
     91c:	1806923a 	slli	r3,r3,8
     920:	1886b03a 	or	r3,r3,r2
     924:	18ffffcc 	andi	r3,r3,65535
     928:	18e0001c 	xori	r3,r3,32768
     92c:	18e00004 	addi	r3,r3,-32768
     930:	00808004 	movi	r2,512
     934:	18bff21e 	bne	r3,r2,900 <chk_mounted+0x13c>
     938:	80c012c3 	ldbu	r3,75(r16)
     93c:	80801283 	ldbu	r2,74(r16)
     940:	1806923a 	slli	r3,r3,8
     944:	1886b03a 	or	r3,r3,r2
     948:	18000a1e 	bne	r3,zero,974 <chk_mounted+0x1b0>
     94c:	814016c3 	ldbu	r5,91(r16)
     950:	81001683 	ldbu	r4,90(r16)
     954:	80801643 	ldbu	r2,89(r16)
     958:	280a963a 	slli	r5,r5,24
     95c:	2008943a 	slli	r4,r4,16
     960:	80c01603 	ldbu	r3,88(r16)
     964:	1004923a 	slli	r2,r2,8
     968:	2908b03a 	or	r4,r5,r4
     96c:	20c6b03a 	or	r3,r4,r3
     970:	1886b03a 	or	r3,r3,r2
     974:	81401103 	ldbu	r5,68(r16)
     978:	80c00815 	stw	r3,32(r16)
     97c:	01000044 	movi	r4,1
     980:	28bfffc4 	addi	r2,r5,-1
     984:	814000c5 	stb	r5,3(r16)
     988:	10803fcc 	andi	r2,r2,255
     98c:	20bfdc36 	bltu	r4,r2,900 <chk_mounted+0x13c>
     990:	80801043 	ldbu	r2,65(r16)
     994:	80800085 	stb	r2,2(r16)
     998:	103fd926 	beq	r2,zero,900 <chk_mounted+0x13c>
     99c:	113fffc4 	addi	r4,r2,-1
     9a0:	2088703a 	and	r4,r4,r2
     9a4:	203fd61e 	bne	r4,zero,900 <chk_mounted+0x13c>
     9a8:	81801183 	ldbu	r6,70(r16)
     9ac:	81001143 	ldbu	r4,69(r16)
     9b0:	300c923a 	slli	r6,r6,8
     9b4:	3108b03a 	or	r4,r6,r4
     9b8:	8100020d 	sth	r4,8(r16)
     9bc:	218003cc 	andi	r6,r4,15
     9c0:	200f883a 	mov	r7,r4
     9c4:	303fce1e 	bne	r6,zero,900 <chk_mounted+0x13c>
     9c8:	81801203 	ldbu	r6,72(r16)
     9cc:	810011c3 	ldbu	r4,71(r16)
     9d0:	300c923a 	slli	r6,r6,8
     9d4:	310cb03a 	or	r6,r6,r4
     9d8:	30000a1e 	bne	r6,zero,a04 <chk_mounted+0x240>
     9dc:	824015c3 	ldbu	r9,87(r16)
     9e0:	82001583 	ldbu	r8,86(r16)
     9e4:	81001543 	ldbu	r4,85(r16)
     9e8:	4812963a 	slli	r9,r9,24
     9ec:	4010943a 	slli	r8,r8,16
     9f0:	81801503 	ldbu	r6,84(r16)
     9f4:	2008923a 	slli	r4,r4,8
     9f8:	4a10b03a 	or	r8,r9,r8
     9fc:	418cb03a 	or	r6,r8,r6
     a00:	310cb03a 	or	r6,r6,r4
     a04:	820010c3 	ldbu	r8,67(r16)
     a08:	81001083 	ldbu	r4,66(r16)
     a0c:	4010923a 	slli	r8,r8,8
     a10:	4108b03a 	or	r4,r8,r4
     a14:	213fffcc 	andi	r4,r4,65535
     a18:	203fb926 	beq	r4,zero,900 <chk_mounted+0x13c>
     a1c:	39ffffcc 	andi	r7,r7,65535
     a20:	2a003fcc 	andi	r8,r5,255
     a24:	380ad13a 	srli	r5,r7,4
     a28:	1a11383a 	mul	r8,r3,r8
     a2c:	290b883a 	add	r5,r5,r4
     a30:	2a0b883a 	add	r5,r5,r8
     a34:	317fb236 	bltu	r6,r5,900 <chk_mounted+0x13c>
     a38:	314dc83a 	sub	r6,r6,r5
     a3c:	3085203a 	divu	r2,r6,r2
     a40:	103faf26 	beq	r2,zero,900 <chk_mounted+0x13c>
     a44:	0183fd44 	movi	r6,4085
     a48:	3080ea2e 	bgeu	r6,r2,df4 <chk_mounted+0x630>
     a4c:	01bffd54 	movui	r6,65525
     a50:	3080d236 	bltu	r6,r2,d9c <chk_mounted+0x5d8>
     a54:	04c00084 	movi	r19,2
     a58:	10800084 	addi	r2,r2,2
     a5c:	2c8b883a 	add	r5,r5,r18
     a60:	9109883a 	add	r4,r18,r4
     a64:	80800715 	stw	r2,28(r16)
     a68:	81400b15 	stw	r5,44(r16)
     a6c:	81000915 	stw	r4,36(r16)
     a70:	383fa326 	beq	r7,zero,900 <chk_mounted+0x13c>
     a74:	4109883a 	add	r4,r8,r4
     a78:	81000a15 	stw	r4,40(r16)
     a7c:	99403fcc 	andi	r5,r19,255
     a80:	01000084 	movi	r4,2
     a84:	2900c326 	beq	r5,r4,d94 <chk_mounted+0x5d0>
     a88:	1089883a 	add	r4,r2,r2
     a8c:	2089883a 	add	r4,r4,r2
     a90:	2008d07a 	srli	r4,r4,1
     a94:	1080004c 	andi	r2,r2,1
     a98:	04c00044 	movi	r19,1
     a9c:	2085883a 	add	r2,r4,r2
     aa0:	10807fc4 	addi	r2,r2,511
     aa4:	1004d27a 	srli	r2,r2,9
     aa8:	18bf9536 	bltu	r3,r2,900 <chk_mounted+0x13c>
     aac:	00bfffc4 	movi	r2,-1
     ab0:	80800415 	stw	r2,16(r16)
     ab4:	80000315 	stw	zero,12(r16)
     ab8:	98c03fcc 	andi	r3,r19,255
     abc:	008000c4 	movi	r2,3
     ac0:	18806e26 	beq	r3,r2,c7c <chk_mounted+0x4b8>
     ac4:	d0a0300b 	ldhu	r2,-32576(gp)
     ac8:	84c00005 	stb	r19,0(r16)
     acc:	80000c15 	stw	zero,48(r16)
     ad0:	10800044 	addi	r2,r2,1
     ad4:	d0a0300d 	sth	r2,-32576(gp)
     ad8:	8080018d 	sth	r2,6(r16)
     adc:	80000105 	stb	zero,4(r16)
     ae0:	80000615 	stw	zero,24(r16)
     ae4:	0005883a 	mov	r2,zero
     ae8:	003f4906 	br	810 <chk_mounted+0x4c>
     aec:	84c08cc3 	ldbu	r19,563(r16)
     af0:	80808c83 	ldbu	r2,562(r16)
     af4:	9826923a 	slli	r19,r19,8
     af8:	98a6b03a 	or	r19,r19,r2
     afc:	9cffffcc 	andi	r19,r19,65535
     b00:	9ce0001c 	xori	r19,r19,32768
     b04:	9ce00004 	addi	r19,r19,-32768
     b08:	00aa9544 	movi	r2,-21931
     b0c:	98800426 	beq	r19,r2,b20 <chk_mounted+0x35c>
     b10:	00800084 	movi	r2,2
     b14:	003f7506 	br	8ec <chk_mounted+0x128>
     b18:	00800044 	movi	r2,1
     b1c:	003f3c06 	br	810 <chk_mounted+0x4c>
     b20:	81401b43 	ldbu	r5,109(r16)
     b24:	81001b03 	ldbu	r4,108(r16)
     b28:	80801ac3 	ldbu	r2,107(r16)
     b2c:	280a963a 	slli	r5,r5,24
     b30:	2008943a 	slli	r4,r4,16
     b34:	80c01a83 	ldbu	r3,106(r16)
     b38:	1004923a 	slli	r2,r2,8
     b3c:	2908b03a 	or	r4,r5,r4
     b40:	20c6b03a 	or	r3,r4,r3
     b44:	1884b03a 	or	r2,r3,r2
     b48:	05404034 	movhi	r21,256
     b4c:	ad7fffc4 	addi	r21,r21,-1
     b50:	1544703a 	and	r2,r2,r21
     b54:	05001534 	movhi	r20,84
     b58:	a5105184 	addi	r20,r20,16710
     b5c:	15002a26 	beq	r2,r20,c08 <chk_mounted+0x444>
     b60:	81402243 	ldbu	r5,137(r16)
     b64:	81002203 	ldbu	r4,136(r16)
     b68:	808021c3 	ldbu	r2,135(r16)
     b6c:	280a963a 	slli	r5,r5,24
     b70:	2008943a 	slli	r4,r4,16
     b74:	80c02183 	ldbu	r3,134(r16)
     b78:	1004923a 	slli	r2,r2,8
     b7c:	2908b03a 	or	r4,r5,r4
     b80:	20c6b03a 	or	r3,r4,r3
     b84:	1884b03a 	or	r2,r3,r2
     b88:	1544703a 	and	r2,r2,r21
     b8c:	153f6026 	beq	r2,r20,910 <chk_mounted+0x14c>
     b90:	80807d83 	ldbu	r2,502(r16)
     b94:	103f5a26 	beq	r2,zero,900 <chk_mounted+0x13c>
     b98:	84807f43 	ldbu	r18,509(r16)
     b9c:	81007f03 	ldbu	r4,508(r16)
     ba0:	80807ec3 	ldbu	r2,507(r16)
     ba4:	9024963a 	slli	r18,r18,24
     ba8:	2008943a 	slli	r4,r4,16
     bac:	80c07e83 	ldbu	r3,506(r16)
     bb0:	1004923a 	slli	r2,r2,8
     bb4:	9124b03a 	or	r18,r18,r4
     bb8:	90e4b03a 	or	r18,r18,r3
     bbc:	81000043 	ldbu	r4,1(r16)
     bc0:	90a4b03a 	or	r18,r18,r2
     bc4:	880b883a 	mov	r5,r17
     bc8:	900d883a 	mov	r6,r18
     bcc:	01c00044 	movi	r7,1
     bd0:	0006da00 	call	6da0 <ffs_DiskIORead>
     bd4:	10000226 	beq	r2,zero,be0 <chk_mounted+0x41c>
     bd8:	008000c4 	movi	r2,3
     bdc:	003f4406 	br	8f0 <chk_mounted+0x12c>
     be0:	80c08cc3 	ldbu	r3,563(r16)
     be4:	80808c83 	ldbu	r2,562(r16)
     be8:	1806923a 	slli	r3,r3,8
     bec:	1884b03a 	or	r2,r3,r2
     bf0:	10bfffcc 	andi	r2,r2,65535
     bf4:	10a0001c 	xori	r2,r2,32768
     bf8:	10a00004 	addi	r2,r2,-32768
     bfc:	14c00426 	beq	r2,r19,c10 <chk_mounted+0x44c>
     c00:	00800084 	movi	r2,2
     c04:	003f3a06 	br	8f0 <chk_mounted+0x12c>
     c08:	0005883a 	mov	r2,zero
     c0c:	003f3706 	br	8ec <chk_mounted+0x128>
     c10:	81401b43 	ldbu	r5,109(r16)
     c14:	81001b03 	ldbu	r4,108(r16)
     c18:	80801ac3 	ldbu	r2,107(r16)
     c1c:	280a963a 	slli	r5,r5,24
     c20:	2008943a 	slli	r4,r4,16
     c24:	80c01a83 	ldbu	r3,106(r16)
     c28:	1004923a 	slli	r2,r2,8
     c2c:	2908b03a 	or	r4,r5,r4
     c30:	20c6b03a 	or	r3,r4,r3
     c34:	1884b03a 	or	r2,r3,r2
     c38:	1544703a 	and	r2,r2,r21
     c3c:	15000d26 	beq	r2,r20,c74 <chk_mounted+0x4b0>
     c40:	81402243 	ldbu	r5,137(r16)
     c44:	81002203 	ldbu	r4,136(r16)
     c48:	808021c3 	ldbu	r2,135(r16)
     c4c:	280a963a 	slli	r5,r5,24
     c50:	2008943a 	slli	r4,r4,16
     c54:	80c02183 	ldbu	r3,134(r16)
     c58:	1004923a 	slli	r2,r2,8
     c5c:	2908b03a 	or	r4,r5,r4
     c60:	20c6b03a 	or	r3,r4,r3
     c64:	1884b03a 	or	r2,r3,r2
     c68:	1544703a 	and	r2,r2,r21
     c6c:	1504c03a 	cmpne	r2,r2,r20
     c70:	003f1f06 	br	8f0 <chk_mounted+0x12c>
     c74:	0005883a 	mov	r2,zero
     c78:	003f1d06 	br	8f0 <chk_mounted+0x12c>
     c7c:	81801943 	ldbu	r6,101(r16)
     c80:	80801903 	ldbu	r2,100(r16)
     c84:	81000043 	ldbu	r4,1(r16)
     c88:	300c923a 	slli	r6,r6,8
     c8c:	80000145 	stb	zero,5(r16)
     c90:	880b883a 	mov	r5,r17
     c94:	308cb03a 	or	r6,r6,r2
     c98:	918d883a 	add	r6,r18,r6
     c9c:	81800515 	stw	r6,20(r16)
     ca0:	01c00044 	movi	r7,1
     ca4:	0006da00 	call	6da0 <ffs_DiskIORead>
     ca8:	103f861e 	bne	r2,zero,ac4 <chk_mounted+0x300>
     cac:	80c08cc3 	ldbu	r3,563(r16)
     cb0:	80808c83 	ldbu	r2,562(r16)
     cb4:	1806923a 	slli	r3,r3,8
     cb8:	1886b03a 	or	r3,r3,r2
     cbc:	18ffffcc 	andi	r3,r3,65535
     cc0:	18e0001c 	xori	r3,r3,32768
     cc4:	18e00004 	addi	r3,r3,-32768
     cc8:	00aa9544 	movi	r2,-21931
     ccc:	18bf7d1e 	bne	r3,r2,ac4 <chk_mounted+0x300>
     cd0:	81400dc3 	ldbu	r5,55(r16)
     cd4:	81000d83 	ldbu	r4,54(r16)
     cd8:	80800d43 	ldbu	r2,53(r16)
     cdc:	280a963a 	slli	r5,r5,24
     ce0:	2008943a 	slli	r4,r4,16
     ce4:	80c00d03 	ldbu	r3,52(r16)
     ce8:	1004923a 	slli	r2,r2,8
     cec:	2908b03a 	or	r4,r5,r4
     cf0:	20c6b03a 	or	r3,r4,r3
     cf4:	1886b03a 	or	r3,r3,r2
     cf8:	00905874 	movhi	r2,16737
     cfc:	10949484 	addi	r2,r2,21074
     d00:	18bf701e 	bne	r3,r2,ac4 <chk_mounted+0x300>
     d04:	814086c3 	ldbu	r5,539(r16)
     d08:	81008683 	ldbu	r4,538(r16)
     d0c:	80808643 	ldbu	r2,537(r16)
     d10:	280a963a 	slli	r5,r5,24
     d14:	2008943a 	slli	r4,r4,16
     d18:	80c08603 	ldbu	r3,536(r16)
     d1c:	1004923a 	slli	r2,r2,8
     d20:	2908b03a 	or	r4,r5,r4
     d24:	20c6b03a 	or	r3,r4,r3
     d28:	1886b03a 	or	r3,r3,r2
     d2c:	00985074 	movhi	r2,24897
     d30:	109c9c84 	addi	r2,r2,29298
     d34:	18bf631e 	bne	r3,r2,ac4 <chk_mounted+0x300>
     d38:	824088c3 	ldbu	r9,547(r16)
     d3c:	81c08883 	ldbu	r7,546(r16)
     d40:	820087c3 	ldbu	r8,543(r16)
     d44:	81808783 	ldbu	r6,542(r16)
     d48:	80c08843 	ldbu	r3,545(r16)
     d4c:	80808743 	ldbu	r2,541(r16)
     d50:	4812963a 	slli	r9,r9,24
     d54:	380e943a 	slli	r7,r7,16
     d58:	4010963a 	slli	r8,r8,24
     d5c:	300c943a 	slli	r6,r6,16
     d60:	81408803 	ldbu	r5,544(r16)
     d64:	81008703 	ldbu	r4,540(r16)
     d68:	1806923a 	slli	r3,r3,8
     d6c:	1004923a 	slli	r2,r2,8
     d70:	49ceb03a 	or	r7,r9,r7
     d74:	418cb03a 	or	r6,r8,r6
     d78:	394ab03a 	or	r5,r7,r5
     d7c:	3108b03a 	or	r4,r6,r4
     d80:	28c6b03a 	or	r3,r5,r3
     d84:	2084b03a 	or	r2,r4,r2
     d88:	80c00315 	stw	r3,12(r16)
     d8c:	80800415 	stw	r2,16(r16)
     d90:	003f4c06 	br	ac4 <chk_mounted+0x300>
     d94:	1085883a 	add	r2,r2,r2
     d98:	003f4106 	br	aa0 <chk_mounted+0x2dc>
     d9c:	10800084 	addi	r2,r2,2
     da0:	2c8b883a 	add	r5,r5,r18
     da4:	9109883a 	add	r4,r18,r4
     da8:	80800715 	stw	r2,28(r16)
     dac:	81400b15 	stw	r5,44(r16)
     db0:	81000915 	stw	r4,36(r16)
     db4:	383ed21e 	bne	r7,zero,900 <chk_mounted+0x13c>
     db8:	81c018c3 	ldbu	r7,99(r16)
     dbc:	81801883 	ldbu	r6,98(r16)
     dc0:	81001843 	ldbu	r4,97(r16)
     dc4:	380e963a 	slli	r7,r7,24
     dc8:	300c943a 	slli	r6,r6,16
     dcc:	81401803 	ldbu	r5,96(r16)
     dd0:	2008923a 	slli	r4,r4,8
     dd4:	398cb03a 	or	r6,r7,r6
     dd8:	314ab03a 	or	r5,r6,r5
     ddc:	2908b03a 	or	r4,r5,r4
     de0:	1085883a 	add	r2,r2,r2
     de4:	81000a15 	stw	r4,40(r16)
     de8:	1085883a 	add	r2,r2,r2
     dec:	04c000c4 	movi	r19,3
     df0:	003f2b06 	br	aa0 <chk_mounted+0x2dc>
     df4:	04c00044 	movi	r19,1
     df8:	003f1706 	br	a58 <chk_mounted+0x294>

00000dfc <put_fat.part.4>:
     dfc:	defff604 	addi	sp,sp,-40
     e00:	dcc00315 	stw	r19,12(sp)
     e04:	dc800215 	stw	r18,8(sp)
     e08:	dc000015 	stw	r16,0(sp)
     e0c:	dfc00915 	stw	ra,36(sp)
     e10:	df000815 	stw	fp,32(sp)
     e14:	ddc00715 	stw	r23,28(sp)
     e18:	dd800615 	stw	r22,24(sp)
     e1c:	dd400515 	stw	r21,20(sp)
     e20:	dd000415 	stw	r20,16(sp)
     e24:	dc400115 	stw	r17,4(sp)
     e28:	24400003 	ldbu	r17,0(r4)
     e2c:	00800084 	movi	r2,2
     e30:	2021883a 	mov	r16,r4
     e34:	2825883a 	mov	r18,r5
     e38:	3027883a 	mov	r19,r6
     e3c:	88807626 	beq	r17,r2,1018 <put_fat.part.4+0x21c>
     e40:	00c000c4 	movi	r3,3
     e44:	88c05226 	beq	r17,r3,f90 <put_fat.part.4+0x194>
     e48:	00c00044 	movi	r3,1
     e4c:	88c00e26 	beq	r17,r3,e88 <put_fat.part.4+0x8c>
     e50:	00c00044 	movi	r3,1
     e54:	80c00105 	stb	r3,4(r16)
     e58:	dfc00917 	ldw	ra,36(sp)
     e5c:	df000817 	ldw	fp,32(sp)
     e60:	ddc00717 	ldw	r23,28(sp)
     e64:	dd800617 	ldw	r22,24(sp)
     e68:	dd400517 	ldw	r21,20(sp)
     e6c:	dd000417 	ldw	r20,16(sp)
     e70:	dcc00317 	ldw	r19,12(sp)
     e74:	dc800217 	ldw	r18,8(sp)
     e78:	dc400117 	ldw	r17,4(sp)
     e7c:	dc000017 	ldw	r16,0(sp)
     e80:	dec00a04 	addi	sp,sp,40
     e84:	f800283a 	ret
     e88:	28ecd83a 	srl	r22,r5,r3
     e8c:	20800917 	ldw	r2,36(r4)
     e90:	25400c17 	ldw	r21,48(r4)
     e94:	b16d883a 	add	r22,r22,r5
     e98:	b028d27a 	srli	r20,r22,9
     e9c:	a0a9883a 	add	r20,r20,r2
     ea0:	a5400526 	beq	r20,r21,eb8 <put_fat.part.4+0xbc>
     ea4:	20800103 	ldbu	r2,4(r4)
     ea8:	1000b11e 	bne	r2,zero,1170 <put_fat.part.4+0x374>
     eac:	a000cb1e 	bne	r20,zero,11dc <put_fat.part.4+0x3e0>
     eb0:	80800917 	ldw	r2,36(r16)
     eb4:	85000c17 	ldw	r20,48(r16)
     eb8:	9480004c 	andi	r18,r18,1
     ebc:	b0c07fcc 	andi	r3,r22,511
     ec0:	90006c1e 	bne	r18,zero,1074 <put_fat.part.4+0x278>
     ec4:	9809883a 	mov	r4,r19
     ec8:	80c7883a 	add	r3,r16,r3
     ecc:	b5800044 	addi	r22,r22,1
     ed0:	b02ad27a 	srli	r21,r22,9
     ed4:	19000d05 	stb	r4,52(r3)
     ed8:	00c00044 	movi	r3,1
     edc:	80c00105 	stb	r3,4(r16)
     ee0:	156b883a 	add	r21,r2,r21
     ee4:	ad002326 	beq	r21,r20,f74 <put_fat.part.4+0x178>
     ee8:	81000043 	ldbu	r4,1(r16)
     eec:	84400d04 	addi	r17,r16,52
     ef0:	07000044 	movi	fp,1
     ef4:	880b883a 	mov	r5,r17
     ef8:	a00d883a 	mov	r6,r20
     efc:	e00f883a 	mov	r7,fp
     f00:	0006fbc0 	call	6fbc <ffs_DiskIOWrite>
     f04:	1000bb1e 	bne	r2,zero,11f4 <put_fat.part.4+0x3f8>
     f08:	80800817 	ldw	r2,32(r16)
     f0c:	80c00917 	ldw	r3,36(r16)
     f10:	80000105 	stb	zero,4(r16)
     f14:	10c7883a 	add	r3,r2,r3
     f18:	a0c00e2e 	bgeu	r20,r3,f54 <put_fat.part.4+0x158>
     f1c:	85c000c3 	ldbu	r23,3(r16)
     f20:	b8c03fcc 	andi	r3,r23,255
     f24:	e0c00236 	bltu	fp,r3,f30 <put_fat.part.4+0x134>
     f28:	00000a06 	br	f54 <put_fat.part.4+0x158>
     f2c:	80800817 	ldw	r2,32(r16)
     f30:	81000043 	ldbu	r4,1(r16)
     f34:	a0a9883a 	add	r20,r20,r2
     f38:	880b883a 	mov	r5,r17
     f3c:	a00d883a 	mov	r6,r20
     f40:	01c00044 	movi	r7,1
     f44:	bdffffc4 	addi	r23,r23,-1
     f48:	0006fbc0 	call	6fbc <ffs_DiskIOWrite>
     f4c:	b8803fcc 	andi	r2,r23,255
     f50:	173ff61e 	bne	r2,fp,f2c <put_fat.part.4+0x130>
     f54:	a8000726 	beq	r21,zero,f74 <put_fat.part.4+0x178>
     f58:	81000043 	ldbu	r4,1(r16)
     f5c:	880b883a 	mov	r5,r17
     f60:	a80d883a 	mov	r6,r21
     f64:	01c00044 	movi	r7,1
     f68:	0006da00 	call	6da0 <ffs_DiskIORead>
     f6c:	1000a11e 	bne	r2,zero,11f4 <put_fat.part.4+0x3f8>
     f70:	85400c15 	stw	r21,48(r16)
     f74:	b5807fcc 	andi	r22,r22,511
     f78:	9000a326 	beq	r18,zero,1208 <put_fat.part.4+0x40c>
     f7c:	9826d13a 	srli	r19,r19,4
     f80:	85ad883a 	add	r22,r16,r22
     f84:	b4c00d05 	stb	r19,52(r22)
     f88:	0005883a 	mov	r2,zero
     f8c:	003fb006 	br	e50 <put_fat.part.4+0x54>
     f90:	2828d1fa 	srli	r20,r5,7
     f94:	20800917 	ldw	r2,36(r4)
     f98:	24400c17 	ldw	r17,48(r4)
     f9c:	a0a9883a 	add	r20,r20,r2
     fa0:	a4400a26 	beq	r20,r17,fcc <put_fat.part.4+0x1d0>
     fa4:	20800103 	ldbu	r2,4(r4)
     fa8:	1000391e 	bne	r2,zero,1090 <put_fat.part.4+0x294>
     fac:	a0000726 	beq	r20,zero,fcc <put_fat.part.4+0x1d0>
     fb0:	81000043 	ldbu	r4,1(r16)
     fb4:	81400d04 	addi	r5,r16,52
     fb8:	a00d883a 	mov	r6,r20
     fbc:	01c00044 	movi	r7,1
     fc0:	0006da00 	call	6da0 <ffs_DiskIORead>
     fc4:	10008b1e 	bne	r2,zero,11f4 <put_fat.part.4+0x3f8>
     fc8:	85000c15 	stw	r20,48(r16)
     fcc:	94a5883a 	add	r18,r18,r18
     fd0:	94a5883a 	add	r18,r18,r18
     fd4:	94807fcc 	andi	r18,r18,511
     fd8:	90c00d04 	addi	r3,r18,52
     fdc:	80c7883a 	add	r3,r16,r3
     fe0:	190000c3 	ldbu	r4,3(r3)
     fe4:	84a5883a 	add	r18,r16,r18
     fe8:	0005883a 	mov	r2,zero
     fec:	2008963a 	slli	r4,r4,24
     ff0:	213c002c 	andhi	r4,r4,61440
     ff4:	24e6b03a 	or	r19,r4,r19
     ff8:	980cd23a 	srli	r6,r19,8
     ffc:	980ad43a 	srli	r5,r19,16
    1000:	9808d63a 	srli	r4,r19,24
    1004:	94c00d05 	stb	r19,52(r18)
    1008:	19800045 	stb	r6,1(r3)
    100c:	19400085 	stb	r5,2(r3)
    1010:	190000c5 	stb	r4,3(r3)
    1014:	003f8e06 	br	e50 <put_fat.part.4+0x54>
    1018:	2828d23a 	srli	r20,r5,8
    101c:	20800917 	ldw	r2,36(r4)
    1020:	24400c17 	ldw	r17,48(r4)
    1024:	a0a9883a 	add	r20,r20,r2
    1028:	a4400a26 	beq	r20,r17,1054 <put_fat.part.4+0x258>
    102c:	20800103 	ldbu	r2,4(r4)
    1030:	1000331e 	bne	r2,zero,1100 <put_fat.part.4+0x304>
    1034:	a0000726 	beq	r20,zero,1054 <put_fat.part.4+0x258>
    1038:	81000043 	ldbu	r4,1(r16)
    103c:	81400d04 	addi	r5,r16,52
    1040:	a00d883a 	mov	r6,r20
    1044:	01c00044 	movi	r7,1
    1048:	0006da00 	call	6da0 <ffs_DiskIORead>
    104c:	1000691e 	bne	r2,zero,11f4 <put_fat.part.4+0x3f8>
    1050:	85000c15 	stw	r20,48(r16)
    1054:	9804d23a 	srli	r2,r19,8
    1058:	94a5883a 	add	r18,r18,r18
    105c:	94807fcc 	andi	r18,r18,511
    1060:	8487883a 	add	r3,r16,r18
    1064:	18800d45 	stb	r2,53(r3)
    1068:	1cc00d05 	stb	r19,52(r3)
    106c:	0005883a 	mov	r2,zero
    1070:	003f7706 	br	e50 <put_fat.part.4+0x54>
    1074:	80c7883a 	add	r3,r16,r3
    1078:	19000d03 	ldbu	r4,52(r3)
    107c:	99403fcc 	andi	r5,r19,255
    1080:	280a913a 	slli	r5,r5,4
    1084:	210003cc 	andi	r4,r4,15
    1088:	2148b03a 	or	r4,r4,r5
    108c:	003f8f06 	br	ecc <put_fat.part.4+0xd0>
    1090:	21000043 	ldbu	r4,1(r4)
    1094:	85800d04 	addi	r22,r16,52
    1098:	05c00044 	movi	r23,1
    109c:	b00b883a 	mov	r5,r22
    10a0:	880d883a 	mov	r6,r17
    10a4:	b80f883a 	mov	r7,r23
    10a8:	0006fbc0 	call	6fbc <ffs_DiskIOWrite>
    10ac:	1000511e 	bne	r2,zero,11f4 <put_fat.part.4+0x3f8>
    10b0:	80800817 	ldw	r2,32(r16)
    10b4:	80c00917 	ldw	r3,36(r16)
    10b8:	80000105 	stb	zero,4(r16)
    10bc:	10c7883a 	add	r3,r2,r3
    10c0:	88ffba2e 	bgeu	r17,r3,fac <put_fat.part.4+0x1b0>
    10c4:	854000c3 	ldbu	r21,3(r16)
    10c8:	a8c03fcc 	andi	r3,r21,255
    10cc:	b8c00236 	bltu	r23,r3,10d8 <put_fat.part.4+0x2dc>
    10d0:	003fb606 	br	fac <put_fat.part.4+0x1b0>
    10d4:	80800817 	ldw	r2,32(r16)
    10d8:	81000043 	ldbu	r4,1(r16)
    10dc:	88a3883a 	add	r17,r17,r2
    10e0:	b00b883a 	mov	r5,r22
    10e4:	880d883a 	mov	r6,r17
    10e8:	01c00044 	movi	r7,1
    10ec:	ad7fffc4 	addi	r21,r21,-1
    10f0:	0006fbc0 	call	6fbc <ffs_DiskIOWrite>
    10f4:	a8803fcc 	andi	r2,r21,255
    10f8:	15fff61e 	bne	r2,r23,10d4 <put_fat.part.4+0x2d8>
    10fc:	003fab06 	br	fac <put_fat.part.4+0x1b0>
    1100:	21000043 	ldbu	r4,1(r4)
    1104:	85800d04 	addi	r22,r16,52
    1108:	05c00044 	movi	r23,1
    110c:	b00b883a 	mov	r5,r22
    1110:	880d883a 	mov	r6,r17
    1114:	b80f883a 	mov	r7,r23
    1118:	0006fbc0 	call	6fbc <ffs_DiskIOWrite>
    111c:	1000351e 	bne	r2,zero,11f4 <put_fat.part.4+0x3f8>
    1120:	80800817 	ldw	r2,32(r16)
    1124:	80c00917 	ldw	r3,36(r16)
    1128:	80000105 	stb	zero,4(r16)
    112c:	10c7883a 	add	r3,r2,r3
    1130:	88ffc02e 	bgeu	r17,r3,1034 <put_fat.part.4+0x238>
    1134:	854000c3 	ldbu	r21,3(r16)
    1138:	a8c03fcc 	andi	r3,r21,255
    113c:	b8c00236 	bltu	r23,r3,1148 <put_fat.part.4+0x34c>
    1140:	003fbc06 	br	1034 <put_fat.part.4+0x238>
    1144:	80800817 	ldw	r2,32(r16)
    1148:	81000043 	ldbu	r4,1(r16)
    114c:	88a3883a 	add	r17,r17,r2
    1150:	b00b883a 	mov	r5,r22
    1154:	880d883a 	mov	r6,r17
    1158:	01c00044 	movi	r7,1
    115c:	ad7fffc4 	addi	r21,r21,-1
    1160:	0006fbc0 	call	6fbc <ffs_DiskIOWrite>
    1164:	a8803fcc 	andi	r2,r21,255
    1168:	15fff61e 	bne	r2,r23,1144 <put_fat.part.4+0x348>
    116c:	003fb106 	br	1034 <put_fat.part.4+0x238>
    1170:	21000043 	ldbu	r4,1(r4)
    1174:	87000d04 	addi	fp,r16,52
    1178:	e00b883a 	mov	r5,fp
    117c:	a80d883a 	mov	r6,r21
    1180:	880f883a 	mov	r7,r17
    1184:	0006fbc0 	call	6fbc <ffs_DiskIOWrite>
    1188:	10001a1e 	bne	r2,zero,11f4 <put_fat.part.4+0x3f8>
    118c:	80800817 	ldw	r2,32(r16)
    1190:	80c00917 	ldw	r3,36(r16)
    1194:	80000105 	stb	zero,4(r16)
    1198:	10c7883a 	add	r3,r2,r3
    119c:	a8ff432e 	bgeu	r21,r3,eac <put_fat.part.4+0xb0>
    11a0:	85c000c3 	ldbu	r23,3(r16)
    11a4:	b8c03fcc 	andi	r3,r23,255
    11a8:	88c00236 	bltu	r17,r3,11b4 <put_fat.part.4+0x3b8>
    11ac:	003f3f06 	br	eac <put_fat.part.4+0xb0>
    11b0:	80800817 	ldw	r2,32(r16)
    11b4:	81000043 	ldbu	r4,1(r16)
    11b8:	a8ab883a 	add	r21,r21,r2
    11bc:	e00b883a 	mov	r5,fp
    11c0:	a80d883a 	mov	r6,r21
    11c4:	01c00044 	movi	r7,1
    11c8:	bdffffc4 	addi	r23,r23,-1
    11cc:	0006fbc0 	call	6fbc <ffs_DiskIOWrite>
    11d0:	b8803fcc 	andi	r2,r23,255
    11d4:	147ff61e 	bne	r2,r17,11b0 <put_fat.part.4+0x3b4>
    11d8:	003f3406 	br	eac <put_fat.part.4+0xb0>
    11dc:	81000043 	ldbu	r4,1(r16)
    11e0:	81400d04 	addi	r5,r16,52
    11e4:	a00d883a 	mov	r6,r20
    11e8:	01c00044 	movi	r7,1
    11ec:	0006da00 	call	6da0 <ffs_DiskIORead>
    11f0:	10000226 	beq	r2,zero,11fc <put_fat.part.4+0x400>
    11f4:	00800044 	movi	r2,1
    11f8:	003f1506 	br	e50 <put_fat.part.4+0x54>
    11fc:	85000c15 	stw	r20,48(r16)
    1200:	80800917 	ldw	r2,36(r16)
    1204:	003f2c06 	br	eb8 <put_fat.part.4+0xbc>
    1208:	85ad883a 	add	r22,r16,r22
    120c:	b0c00d03 	ldbu	r3,52(r22)
    1210:	9826d23a 	srli	r19,r19,8
    1214:	00bffc04 	movi	r2,-16
    1218:	1884703a 	and	r2,r3,r2
    121c:	9cc003cc 	andi	r19,r19,15
    1220:	14e6b03a 	or	r19,r2,r19
    1224:	003f5706 	br	f84 <put_fat.part.4+0x188>

00001228 <get_fat.part.2>:
    1228:	defff604 	addi	sp,sp,-40
    122c:	dc800215 	stw	r18,8(sp)
    1230:	dc000015 	stw	r16,0(sp)
    1234:	dfc00915 	stw	ra,36(sp)
    1238:	df000815 	stw	fp,32(sp)
    123c:	ddc00715 	stw	r23,28(sp)
    1240:	dd800615 	stw	r22,24(sp)
    1244:	dd400515 	stw	r21,20(sp)
    1248:	dd000415 	stw	r20,16(sp)
    124c:	dcc00315 	stw	r19,12(sp)
    1250:	dc400115 	stw	r17,4(sp)
    1254:	24400003 	ldbu	r17,0(r4)
    1258:	00800084 	movi	r2,2
    125c:	2021883a 	mov	r16,r4
    1260:	2825883a 	mov	r18,r5
    1264:	88805b26 	beq	r17,r2,13d4 <get_fat.part.2+0x1ac>
    1268:	008000c4 	movi	r2,3
    126c:	88803626 	beq	r17,r2,1348 <get_fat.part.2+0x120>
    1270:	00800044 	movi	r2,1
    1274:	88800d26 	beq	r17,r2,12ac <get_fat.part.2+0x84>
    1278:	00bfffc4 	movi	r2,-1
    127c:	dfc00917 	ldw	ra,36(sp)
    1280:	df000817 	ldw	fp,32(sp)
    1284:	ddc00717 	ldw	r23,28(sp)
    1288:	dd800617 	ldw	r22,24(sp)
    128c:	dd400517 	ldw	r21,20(sp)
    1290:	dd000417 	ldw	r20,16(sp)
    1294:	dcc00317 	ldw	r19,12(sp)
    1298:	dc800217 	ldw	r18,8(sp)
    129c:	dc400117 	ldw	r17,4(sp)
    12a0:	dc000017 	ldw	r16,0(sp)
    12a4:	dec00a04 	addi	sp,sp,40
    12a8:	f800283a 	ret
    12ac:	28aad83a 	srl	r21,r5,r2
    12b0:	20800917 	ldw	r2,36(r4)
    12b4:	25000c17 	ldw	r20,48(r4)
    12b8:	a96b883a 	add	r21,r21,r5
    12bc:	a826d27a 	srli	r19,r21,9
    12c0:	98a7883a 	add	r19,r19,r2
    12c4:	9d000526 	beq	r19,r20,12dc <get_fat.part.2+0xb4>
    12c8:	20800103 	ldbu	r2,4(r4)
    12cc:	1000751e 	bne	r2,zero,14a4 <get_fat.part.2+0x27c>
    12d0:	9800ab1e 	bne	r19,zero,1580 <get_fat.part.2+0x358>
    12d4:	80800917 	ldw	r2,36(r16)
    12d8:	84c00c17 	ldw	r19,48(r16)
    12dc:	ad000044 	addi	r20,r21,1
    12e0:	a022d27a 	srli	r17,r20,9
    12e4:	ad407fcc 	andi	r21,r21,511
    12e8:	856b883a 	add	r21,r16,r21
    12ec:	1463883a 	add	r17,r2,r17
    12f0:	ad400d03 	ldbu	r21,52(r21)
    12f4:	8cc00a26 	beq	r17,r19,1320 <get_fat.part.2+0xf8>
    12f8:	80800103 	ldbu	r2,4(r16)
    12fc:	1000a91e 	bne	r2,zero,15a4 <get_fat.part.2+0x37c>
    1300:	88000726 	beq	r17,zero,1320 <get_fat.part.2+0xf8>
    1304:	81000043 	ldbu	r4,1(r16)
    1308:	81400d04 	addi	r5,r16,52
    130c:	880d883a 	mov	r6,r17
    1310:	01c00044 	movi	r7,1
    1314:	0006da00 	call	6da0 <ffs_DiskIORead>
    1318:	103fd71e 	bne	r2,zero,1278 <get_fat.part.2+0x50>
    131c:	84400c15 	stw	r17,48(r16)
    1320:	a5007fcc 	andi	r20,r20,511
    1324:	8521883a 	add	r16,r16,r20
    1328:	80800d03 	ldbu	r2,52(r16)
    132c:	ad403fcc 	andi	r21,r21,255
    1330:	9480004c 	andi	r18,r18,1
    1334:	1004923a 	slli	r2,r2,8
    1338:	1544b03a 	or	r2,r2,r21
    133c:	9000b526 	beq	r18,zero,1614 <get_fat.part.2+0x3ec>
    1340:	1004d13a 	srli	r2,r2,4
    1344:	003fcd06 	br	127c <get_fat.part.2+0x54>
    1348:	2826d1fa 	srli	r19,r5,7
    134c:	20800917 	ldw	r2,36(r4)
    1350:	24400c17 	ldw	r17,48(r4)
    1354:	98a7883a 	add	r19,r19,r2
    1358:	9c400a26 	beq	r19,r17,1384 <get_fat.part.2+0x15c>
    135c:	20800103 	ldbu	r2,4(r4)
    1360:	10006b1e 	bne	r2,zero,1510 <get_fat.part.2+0x2e8>
    1364:	98000726 	beq	r19,zero,1384 <get_fat.part.2+0x15c>
    1368:	81000043 	ldbu	r4,1(r16)
    136c:	81400d04 	addi	r5,r16,52
    1370:	980d883a 	mov	r6,r19
    1374:	01c00044 	movi	r7,1
    1378:	0006da00 	call	6da0 <ffs_DiskIORead>
    137c:	103fbe1e 	bne	r2,zero,1278 <get_fat.part.2+0x50>
    1380:	84c00c15 	stw	r19,48(r16)
    1384:	94a5883a 	add	r18,r18,r18
    1388:	94a5883a 	add	r18,r18,r18
    138c:	94807fcc 	andi	r18,r18,511
    1390:	90800d04 	addi	r2,r18,52
    1394:	8085883a 	add	r2,r16,r2
    1398:	10c00083 	ldbu	r3,2(r2)
    139c:	114000c3 	ldbu	r5,3(r2)
    13a0:	11000043 	ldbu	r4,1(r2)
    13a4:	1804943a 	slli	r2,r3,16
    13a8:	280a963a 	slli	r5,r5,24
    13ac:	2008923a 	slli	r4,r4,8
    13b0:	84a1883a 	add	r16,r16,r18
    13b4:	80c00d03 	ldbu	r3,52(r16)
    13b8:	1144b03a 	or	r2,r2,r5
    13bc:	1104b03a 	or	r2,r2,r4
    13c0:	10c4b03a 	or	r2,r2,r3
    13c4:	00c40034 	movhi	r3,4096
    13c8:	18ffffc4 	addi	r3,r3,-1
    13cc:	10c4703a 	and	r2,r2,r3
    13d0:	003faa06 	br	127c <get_fat.part.2+0x54>
    13d4:	2826d23a 	srli	r19,r5,8
    13d8:	20800917 	ldw	r2,36(r4)
    13dc:	24400c17 	ldw	r17,48(r4)
    13e0:	98a7883a 	add	r19,r19,r2
    13e4:	9c400a26 	beq	r19,r17,1410 <get_fat.part.2+0x1e8>
    13e8:	20800103 	ldbu	r2,4(r4)
    13ec:	1000111e 	bne	r2,zero,1434 <get_fat.part.2+0x20c>
    13f0:	98000726 	beq	r19,zero,1410 <get_fat.part.2+0x1e8>
    13f4:	81000043 	ldbu	r4,1(r16)
    13f8:	81400d04 	addi	r5,r16,52
    13fc:	980d883a 	mov	r6,r19
    1400:	01c00044 	movi	r7,1
    1404:	0006da00 	call	6da0 <ffs_DiskIORead>
    1408:	103f9b1e 	bne	r2,zero,1278 <get_fat.part.2+0x50>
    140c:	84c00c15 	stw	r19,48(r16)
    1410:	94a5883a 	add	r18,r18,r18
    1414:	94807fcc 	andi	r18,r18,511
    1418:	8485883a 	add	r2,r16,r18
    141c:	10800d43 	ldbu	r2,53(r2)
    1420:	84a1883a 	add	r16,r16,r18
    1424:	80c00d03 	ldbu	r3,52(r16)
    1428:	1004923a 	slli	r2,r2,8
    142c:	10c4b03a 	or	r2,r2,r3
    1430:	003f9206 	br	127c <get_fat.part.2+0x54>
    1434:	21000043 	ldbu	r4,1(r4)
    1438:	85400d04 	addi	r21,r16,52
    143c:	05800044 	movi	r22,1
    1440:	a80b883a 	mov	r5,r21
    1444:	880d883a 	mov	r6,r17
    1448:	b00f883a 	mov	r7,r22
    144c:	0006fbc0 	call	6fbc <ffs_DiskIOWrite>
    1450:	103f891e 	bne	r2,zero,1278 <get_fat.part.2+0x50>
    1454:	80800817 	ldw	r2,32(r16)
    1458:	80c00917 	ldw	r3,36(r16)
    145c:	80000105 	stb	zero,4(r16)
    1460:	10c7883a 	add	r3,r2,r3
    1464:	88ffe22e 	bgeu	r17,r3,13f0 <get_fat.part.2+0x1c8>
    1468:	850000c3 	ldbu	r20,3(r16)
    146c:	a0c03fcc 	andi	r3,r20,255
    1470:	b0c00236 	bltu	r22,r3,147c <get_fat.part.2+0x254>
    1474:	003fde06 	br	13f0 <get_fat.part.2+0x1c8>
    1478:	80800817 	ldw	r2,32(r16)
    147c:	81000043 	ldbu	r4,1(r16)
    1480:	88a3883a 	add	r17,r17,r2
    1484:	a80b883a 	mov	r5,r21
    1488:	880d883a 	mov	r6,r17
    148c:	01c00044 	movi	r7,1
    1490:	a53fffc4 	addi	r20,r20,-1
    1494:	0006fbc0 	call	6fbc <ffs_DiskIOWrite>
    1498:	a0803fcc 	andi	r2,r20,255
    149c:	15bff61e 	bne	r2,r22,1478 <get_fat.part.2+0x250>
    14a0:	003fd306 	br	13f0 <get_fat.part.2+0x1c8>
    14a4:	21000043 	ldbu	r4,1(r4)
    14a8:	85c00d04 	addi	r23,r16,52
    14ac:	b80b883a 	mov	r5,r23
    14b0:	a00d883a 	mov	r6,r20
    14b4:	880f883a 	mov	r7,r17
    14b8:	0006fbc0 	call	6fbc <ffs_DiskIOWrite>
    14bc:	103f6e1e 	bne	r2,zero,1278 <get_fat.part.2+0x50>
    14c0:	80800817 	ldw	r2,32(r16)
    14c4:	80c00917 	ldw	r3,36(r16)
    14c8:	80000105 	stb	zero,4(r16)
    14cc:	10c7883a 	add	r3,r2,r3
    14d0:	a0ff7f2e 	bgeu	r20,r3,12d0 <get_fat.part.2+0xa8>
    14d4:	858000c3 	ldbu	r22,3(r16)
    14d8:	b0c03fcc 	andi	r3,r22,255
    14dc:	88c00236 	bltu	r17,r3,14e8 <get_fat.part.2+0x2c0>
    14e0:	003f7b06 	br	12d0 <get_fat.part.2+0xa8>
    14e4:	80800817 	ldw	r2,32(r16)
    14e8:	81000043 	ldbu	r4,1(r16)
    14ec:	a0a9883a 	add	r20,r20,r2
    14f0:	b80b883a 	mov	r5,r23
    14f4:	a00d883a 	mov	r6,r20
    14f8:	01c00044 	movi	r7,1
    14fc:	b5bfffc4 	addi	r22,r22,-1
    1500:	0006fbc0 	call	6fbc <ffs_DiskIOWrite>
    1504:	b0803fcc 	andi	r2,r22,255
    1508:	147ff61e 	bne	r2,r17,14e4 <get_fat.part.2+0x2bc>
    150c:	003f7006 	br	12d0 <get_fat.part.2+0xa8>
    1510:	21000043 	ldbu	r4,1(r4)
    1514:	85400d04 	addi	r21,r16,52
    1518:	05800044 	movi	r22,1
    151c:	a80b883a 	mov	r5,r21
    1520:	880d883a 	mov	r6,r17
    1524:	b00f883a 	mov	r7,r22
    1528:	0006fbc0 	call	6fbc <ffs_DiskIOWrite>
    152c:	103f521e 	bne	r2,zero,1278 <get_fat.part.2+0x50>
    1530:	80800817 	ldw	r2,32(r16)
    1534:	80c00917 	ldw	r3,36(r16)
    1538:	80000105 	stb	zero,4(r16)
    153c:	10c7883a 	add	r3,r2,r3
    1540:	88ff882e 	bgeu	r17,r3,1364 <get_fat.part.2+0x13c>
    1544:	850000c3 	ldbu	r20,3(r16)
    1548:	a0c03fcc 	andi	r3,r20,255
    154c:	b0c00236 	bltu	r22,r3,1558 <get_fat.part.2+0x330>
    1550:	003f8406 	br	1364 <get_fat.part.2+0x13c>
    1554:	80800817 	ldw	r2,32(r16)
    1558:	81000043 	ldbu	r4,1(r16)
    155c:	88a3883a 	add	r17,r17,r2
    1560:	a80b883a 	mov	r5,r21
    1564:	880d883a 	mov	r6,r17
    1568:	01c00044 	movi	r7,1
    156c:	a53fffc4 	addi	r20,r20,-1
    1570:	0006fbc0 	call	6fbc <ffs_DiskIOWrite>
    1574:	a0803fcc 	andi	r2,r20,255
    1578:	15bff61e 	bne	r2,r22,1554 <get_fat.part.2+0x32c>
    157c:	003f7906 	br	1364 <get_fat.part.2+0x13c>
    1580:	81000043 	ldbu	r4,1(r16)
    1584:	81400d04 	addi	r5,r16,52
    1588:	980d883a 	mov	r6,r19
    158c:	01c00044 	movi	r7,1
    1590:	0006da00 	call	6da0 <ffs_DiskIORead>
    1594:	103f381e 	bne	r2,zero,1278 <get_fat.part.2+0x50>
    1598:	84c00c15 	stw	r19,48(r16)
    159c:	80800917 	ldw	r2,36(r16)
    15a0:	003f4e06 	br	12dc <get_fat.part.2+0xb4>
    15a4:	81000043 	ldbu	r4,1(r16)
    15a8:	85c00d04 	addi	r23,r16,52
    15ac:	07000044 	movi	fp,1
    15b0:	b80b883a 	mov	r5,r23
    15b4:	980d883a 	mov	r6,r19
    15b8:	e00f883a 	mov	r7,fp
    15bc:	0006fbc0 	call	6fbc <ffs_DiskIOWrite>
    15c0:	103f2d1e 	bne	r2,zero,1278 <get_fat.part.2+0x50>
    15c4:	80800817 	ldw	r2,32(r16)
    15c8:	80c00917 	ldw	r3,36(r16)
    15cc:	80000105 	stb	zero,4(r16)
    15d0:	10c7883a 	add	r3,r2,r3
    15d4:	98ff4a2e 	bgeu	r19,r3,1300 <get_fat.part.2+0xd8>
    15d8:	858000c3 	ldbu	r22,3(r16)
    15dc:	b0c03fcc 	andi	r3,r22,255
    15e0:	e0c00236 	bltu	fp,r3,15ec <get_fat.part.2+0x3c4>
    15e4:	003f4606 	br	1300 <get_fat.part.2+0xd8>
    15e8:	80800817 	ldw	r2,32(r16)
    15ec:	81000043 	ldbu	r4,1(r16)
    15f0:	98a7883a 	add	r19,r19,r2
    15f4:	b80b883a 	mov	r5,r23
    15f8:	980d883a 	mov	r6,r19
    15fc:	01c00044 	movi	r7,1
    1600:	b5bfffc4 	addi	r22,r22,-1
    1604:	0006fbc0 	call	6fbc <ffs_DiskIOWrite>
    1608:	b0803fcc 	andi	r2,r22,255
    160c:	173ff61e 	bne	r2,fp,15e8 <get_fat.part.2+0x3c0>
    1610:	003f3b06 	br	1300 <get_fat.part.2+0xd8>
    1614:	1083ffcc 	andi	r2,r2,4095
    1618:	003f1806 	br	127c <get_fat.part.2+0x54>

0000161c <dir_sdi>:
    161c:	defff904 	addi	sp,sp,-28
    1620:	20800217 	ldw	r2,8(r4)
    1624:	dc400115 	stw	r17,4(sp)
    1628:	dc000015 	stw	r16,0(sp)
    162c:	dfc00615 	stw	ra,24(sp)
    1630:	dd400515 	stw	r21,20(sp)
    1634:	dd000415 	stw	r20,16(sp)
    1638:	dcc00315 	stw	r19,12(sp)
    163c:	dc800215 	stw	r18,8(sp)
    1640:	2140018d 	sth	r5,6(r4)
    1644:	00c00044 	movi	r3,1
    1648:	2021883a 	mov	r16,r4
    164c:	2823883a 	mov	r17,r5
    1650:	10c00326 	beq	r2,r3,1660 <dir_sdi+0x44>
    1654:	21000017 	ldw	r4,0(r4)
    1658:	20c00717 	ldw	r3,28(r4)
    165c:	10c00a36 	bltu	r2,r3,1688 <dir_sdi+0x6c>
    1660:	00800084 	movi	r2,2
    1664:	dfc00617 	ldw	ra,24(sp)
    1668:	dd400517 	ldw	r21,20(sp)
    166c:	dd000417 	ldw	r20,16(sp)
    1670:	dcc00317 	ldw	r19,12(sp)
    1674:	dc800217 	ldw	r18,8(sp)
    1678:	dc400117 	ldw	r17,4(sp)
    167c:	dc000017 	ldw	r16,0(sp)
    1680:	dec00704 	addi	sp,sp,28
    1684:	f800283a 	ret
    1688:	1000141e 	bne	r2,zero,16dc <dir_sdi+0xc0>
    168c:	21400003 	ldbu	r5,0(r4)
    1690:	008000c4 	movi	r2,3
    1694:	28800f26 	beq	r5,r2,16d4 <dir_sdi+0xb8>
    1698:	20c0020b 	ldhu	r3,8(r4)
    169c:	88bfffcc 	andi	r2,r17,65535
    16a0:	80000315 	stw	zero,12(r16)
    16a4:	10ffee2e 	bgeu	r2,r3,1660 <dir_sdi+0x44>
    16a8:	20c00a17 	ldw	r3,40(r4)
    16ac:	1004d13a 	srli	r2,r2,4
    16b0:	10c5883a 	add	r2,r2,r3
    16b4:	80800415 	stw	r2,16(r16)
    16b8:	88c003cc 	andi	r3,r17,15
    16bc:	1806917a 	slli	r3,r3,5
    16c0:	0005883a 	mov	r2,zero
    16c4:	18c00d04 	addi	r3,r3,52
    16c8:	20c9883a 	add	r4,r4,r3
    16cc:	81000515 	stw	r4,20(r16)
    16d0:	003fe406 	br	1664 <dir_sdi+0x48>
    16d4:	20800a17 	ldw	r2,40(r4)
    16d8:	103fef26 	beq	r2,zero,1698 <dir_sdi+0x7c>
    16dc:	24800083 	ldbu	r18,2(r4)
    16e0:	897fffcc 	andi	r5,r17,65535
    16e4:	9024913a 	slli	r18,r18,4
    16e8:	957fffcc 	andi	r21,r18,65535
    16ec:	2d401136 	bltu	r5,r21,1734 <dir_sdi+0x118>
    16f0:	05000044 	movi	r20,1
    16f4:	a0bfda2e 	bgeu	r20,r2,1660 <dir_sdi+0x44>
    16f8:	10ffd92e 	bgeu	r2,r3,1660 <dir_sdi+0x44>
    16fc:	04ffffc4 	movi	r19,-1
    1700:	00000506 	br	1718 <dir_sdi+0xfc>
    1704:	a0bfd62e 	bgeu	r20,r2,1660 <dir_sdi+0x44>
    1708:	81000017 	ldw	r4,0(r16)
    170c:	20c00717 	ldw	r3,28(r4)
    1710:	10ffd32e 	bgeu	r2,r3,1660 <dir_sdi+0x44>
    1714:	2d400736 	bltu	r5,r21,1734 <dir_sdi+0x118>
    1718:	100b883a 	mov	r5,r2
    171c:	8ca3c83a 	sub	r17,r17,r18
    1720:	00012280 	call	1228 <get_fat.part.2>
    1724:	897fffcc 	andi	r5,r17,65535
    1728:	14fff61e 	bne	r2,r19,1704 <dir_sdi+0xe8>
    172c:	00800044 	movi	r2,1
    1730:	003fcc06 	br	1664 <dir_sdi+0x48>
    1734:	20c00717 	ldw	r3,28(r4)
    1738:	80800315 	stw	r2,12(r16)
    173c:	10bfff84 	addi	r2,r2,-2
    1740:	18ffff84 	addi	r3,r3,-2
    1744:	10c0082e 	bgeu	r2,r3,1768 <dir_sdi+0x14c>
    1748:	21800083 	ldbu	r6,2(r4)
    174c:	20c00b17 	ldw	r3,44(r4)
    1750:	1185383a 	mul	r2,r2,r6
    1754:	10c5883a 	add	r2,r2,r3
    1758:	280ad13a 	srli	r5,r5,4
    175c:	114b883a 	add	r5,r2,r5
    1760:	81400415 	stw	r5,16(r16)
    1764:	003fd406 	br	16b8 <dir_sdi+0x9c>
    1768:	0005883a 	mov	r2,zero
    176c:	003ffa06 	br	1758 <dir_sdi+0x13c>

00001770 <create_chain>:
    1770:	defff804 	addi	sp,sp,-32
    1774:	dd400515 	stw	r21,20(sp)
    1778:	dc400115 	stw	r17,4(sp)
    177c:	dfc00715 	stw	ra,28(sp)
    1780:	dd800615 	stw	r22,24(sp)
    1784:	dd000415 	stw	r20,16(sp)
    1788:	dcc00315 	stw	r19,12(sp)
    178c:	dc800215 	stw	r18,8(sp)
    1790:	dc000015 	stw	r16,0(sp)
    1794:	282b883a 	mov	r21,r5
    1798:	2023883a 	mov	r17,r4
    179c:	28002b1e 	bne	r5,zero,184c <create_chain+0xdc>
    17a0:	24c00317 	ldw	r19,12(r4)
    17a4:	20c00717 	ldw	r3,28(r4)
    17a8:	9800071e 	bne	r19,zero,17c8 <create_chain+0x58>
    17ac:	04c00044 	movi	r19,1
    17b0:	9c000044 	addi	r16,r19,1
    17b4:	04800044 	movi	r18,1
    17b8:	04ffffc4 	movi	r19,-1
    17bc:	80c03436 	bltu	r16,r3,1890 <create_chain+0x120>
    17c0:	0005883a 	mov	r2,zero
    17c4:	00001706 	br	1824 <create_chain+0xb4>
    17c8:	98fff82e 	bgeu	r19,r3,17ac <create_chain+0x3c>
    17cc:	00800044 	movi	r2,1
    17d0:	14fff72e 	bgeu	r2,r19,17b0 <create_chain+0x40>
    17d4:	9821883a 	mov	r16,r19
    17d8:	84000044 	addi	r16,r16,1
    17dc:	05800084 	movi	r22,2
    17e0:	04800044 	movi	r18,1
    17e4:	053fffc4 	movi	r20,-1
    17e8:	80c00c36 	bltu	r16,r3,181c <create_chain+0xac>
    17ec:	b0c00c2e 	bgeu	r22,r3,1820 <create_chain+0xb0>
    17f0:	04000084 	movi	r16,2
    17f4:	8809883a 	mov	r4,r17
    17f8:	800b883a 	mov	r5,r16
    17fc:	00012280 	call	1228 <get_fat.part.2>
    1800:	10001c26 	beq	r2,zero,1874 <create_chain+0x104>
    1804:	15002026 	beq	r2,r20,1888 <create_chain+0x118>
    1808:	14800526 	beq	r2,r18,1820 <create_chain+0xb0>
    180c:	84ffec26 	beq	r16,r19,17c0 <create_chain+0x50>
    1810:	88c00717 	ldw	r3,28(r17)
    1814:	84000044 	addi	r16,r16,1
    1818:	80fff42e 	bgeu	r16,r3,17ec <create_chain+0x7c>
    181c:	943ff536 	bltu	r18,r16,17f4 <create_chain+0x84>
    1820:	00800044 	movi	r2,1
    1824:	dfc00717 	ldw	ra,28(sp)
    1828:	dd800617 	ldw	r22,24(sp)
    182c:	dd400517 	ldw	r21,20(sp)
    1830:	dd000417 	ldw	r20,16(sp)
    1834:	dcc00317 	ldw	r19,12(sp)
    1838:	dc800217 	ldw	r18,8(sp)
    183c:	dc400117 	ldw	r17,4(sp)
    1840:	dc000017 	ldw	r16,0(sp)
    1844:	dec00804 	addi	sp,sp,32
    1848:	f800283a 	ret
    184c:	04000044 	movi	r16,1
    1850:	817ff32e 	bgeu	r16,r5,1820 <create_chain+0xb0>
    1854:	20800717 	ldw	r2,28(r4)
    1858:	28bff12e 	bgeu	r5,r2,1820 <create_chain+0xb0>
    185c:	00012280 	call	1228 <get_fat.part.2>
    1860:	80bfef2e 	bgeu	r16,r2,1820 <create_chain+0xb0>
    1864:	88c00717 	ldw	r3,28(r17)
    1868:	10ffee36 	bltu	r2,r3,1824 <create_chain+0xb4>
    186c:	a827883a 	mov	r19,r21
    1870:	003fd806 	br	17d4 <create_chain+0x64>
    1874:	88800717 	ldw	r2,28(r17)
    1878:	80801036 	bltu	r16,r2,18bc <create_chain+0x14c>
    187c:	00800084 	movi	r2,2
    1880:	04000044 	movi	r16,1
    1884:	143fe61e 	bne	r2,r16,1820 <create_chain+0xb0>
    1888:	00bfffc4 	movi	r2,-1
    188c:	003fe506 	br	1824 <create_chain+0xb4>
    1890:	943fe32e 	bgeu	r18,r16,1820 <create_chain+0xb0>
    1894:	800b883a 	mov	r5,r16
    1898:	8809883a 	mov	r4,r17
    189c:	00012280 	call	1228 <get_fat.part.2>
    18a0:	103ff426 	beq	r2,zero,1874 <create_chain+0x104>
    18a4:	14fff826 	beq	r2,r19,1888 <create_chain+0x118>
    18a8:	14bfdd26 	beq	r2,r18,1820 <create_chain+0xb0>
    18ac:	88c00717 	ldw	r3,28(r17)
    18b0:	84000044 	addi	r16,r16,1
    18b4:	80ffc22e 	bgeu	r16,r3,17c0 <create_chain+0x50>
    18b8:	003ff506 	br	1890 <create_chain+0x120>
    18bc:	8809883a 	mov	r4,r17
    18c0:	800b883a 	mov	r5,r16
    18c4:	01840034 	movhi	r6,4096
    18c8:	31bfffc4 	addi	r6,r6,-1
    18cc:	0000dfc0 	call	dfc <put_fat.part.4>
    18d0:	103feb1e 	bne	r2,zero,1880 <create_chain+0x110>
    18d4:	a8000a1e 	bne	r21,zero,1900 <create_chain+0x190>
    18d8:	88800417 	ldw	r2,16(r17)
    18dc:	8c000315 	stw	r16,12(r17)
    18e0:	00ffffc4 	movi	r3,-1
    18e4:	10c00426 	beq	r2,r3,18f8 <create_chain+0x188>
    18e8:	10bfffc4 	addi	r2,r2,-1
    18ec:	88800415 	stw	r2,16(r17)
    18f0:	00800044 	movi	r2,1
    18f4:	88800145 	stb	r2,5(r17)
    18f8:	8005883a 	mov	r2,r16
    18fc:	003fc906 	br	1824 <create_chain+0xb4>
    1900:	00800044 	movi	r2,1
    1904:	157fc72e 	bgeu	r2,r21,1824 <create_chain+0xb4>
    1908:	88c00717 	ldw	r3,28(r17)
    190c:	a8ffc52e 	bgeu	r21,r3,1824 <create_chain+0xb4>
    1910:	8809883a 	mov	r4,r17
    1914:	a80b883a 	mov	r5,r21
    1918:	800d883a 	mov	r6,r16
    191c:	0000dfc0 	call	dfc <put_fat.part.4>
    1920:	103fed26 	beq	r2,zero,18d8 <create_chain+0x168>
    1924:	003fd606 	br	1880 <create_chain+0x110>

00001928 <dir_register>:
    1928:	defff504 	addi	sp,sp,-44
    192c:	000b883a 	mov	r5,zero
    1930:	dcc00415 	stw	r19,16(sp)
    1934:	dc800315 	stw	r18,12(sp)
    1938:	dfc00a15 	stw	ra,40(sp)
    193c:	df000915 	stw	fp,36(sp)
    1940:	ddc00815 	stw	r23,32(sp)
    1944:	dd800715 	stw	r22,28(sp)
    1948:	dd400615 	stw	r21,24(sp)
    194c:	dd000515 	stw	r20,20(sp)
    1950:	dc400215 	stw	r17,8(sp)
    1954:	dc000115 	stw	r16,4(sp)
    1958:	2027883a 	mov	r19,r4
    195c:	000161c0 	call	161c <dir_sdi>
    1960:	1025883a 	mov	r18,r2
    1964:	1000131e 	bne	r2,zero,19b4 <dir_register+0x8c>
    1968:	9c000017 	ldw	r16,0(r19)
    196c:	9dc00417 	ldw	r23,16(r19)
    1970:	05000044 	movi	r20,1
    1974:	05403944 	movi	r21,229
    1978:	84400c17 	ldw	r17,48(r16)
    197c:	8dc00326 	beq	r17,r23,198c <dir_register+0x64>
    1980:	80800103 	ldbu	r2,4(r16)
    1984:	1000241e 	bne	r2,zero,1a18 <dir_register+0xf0>
    1988:	b8003e1e 	bne	r23,zero,1a84 <dir_register+0x15c>
    198c:	99c00517 	ldw	r7,20(r19)
    1990:	38800003 	ldbu	r2,0(r7)
    1994:	15407826 	beq	r2,r21,1b78 <dir_register+0x250>
    1998:	10007726 	beq	r2,zero,1b78 <dir_register+0x250>
    199c:	9880018b 	ldhu	r2,6(r19)
    19a0:	10800044 	addi	r2,r2,1
    19a4:	113fffcc 	andi	r4,r2,65535
    19a8:	1023883a 	mov	r17,r2
    19ac:	20000e1e 	bne	r4,zero,19e8 <dir_register+0xc0>
    19b0:	04800104 	movi	r18,4
    19b4:	9005883a 	mov	r2,r18
    19b8:	dfc00a17 	ldw	ra,40(sp)
    19bc:	df000917 	ldw	fp,36(sp)
    19c0:	ddc00817 	ldw	r23,32(sp)
    19c4:	dd800717 	ldw	r22,28(sp)
    19c8:	dd400617 	ldw	r21,24(sp)
    19cc:	dd000517 	ldw	r20,20(sp)
    19d0:	dcc00417 	ldw	r19,16(sp)
    19d4:	dc800317 	ldw	r18,12(sp)
    19d8:	dc400217 	ldw	r17,8(sp)
    19dc:	dc000117 	ldw	r16,4(sp)
    19e0:	dec00b04 	addi	sp,sp,44
    19e4:	f800283a 	ret
    19e8:	9dc00417 	ldw	r23,16(r19)
    19ec:	b83ff026 	beq	r23,zero,19b0 <dir_register+0x88>
    19f0:	170003cc 	andi	fp,r2,15
    19f4:	e000591e 	bne	fp,zero,1b5c <dir_register+0x234>
    19f8:	99400317 	ldw	r5,12(r19)
    19fc:	bdc00044 	addi	r23,r23,1
    1a00:	9dc00415 	stw	r23,16(r19)
    1a04:	9c000017 	ldw	r16,0(r19)
    1a08:	2800c11e 	bne	r5,zero,1d10 <dir_register+0x3e8>
    1a0c:	8080020b 	ldhu	r2,8(r16)
    1a10:	20bfe72e 	bgeu	r4,r2,19b0 <dir_register+0x88>
    1a14:	00005206 	br	1b60 <dir_register+0x238>
    1a18:	81000043 	ldbu	r4,1(r16)
    1a1c:	87000d04 	addi	fp,r16,52
    1a20:	e00b883a 	mov	r5,fp
    1a24:	880d883a 	mov	r6,r17
    1a28:	01c00044 	movi	r7,1
    1a2c:	0006fbc0 	call	6fbc <ffs_DiskIOWrite>
    1a30:	1000481e 	bne	r2,zero,1b54 <dir_register+0x22c>
    1a34:	80800817 	ldw	r2,32(r16)
    1a38:	81000917 	ldw	r4,36(r16)
    1a3c:	80000105 	stb	zero,4(r16)
    1a40:	1109883a 	add	r4,r2,r4
    1a44:	893fd02e 	bgeu	r17,r4,1988 <dir_register+0x60>
    1a48:	858000c3 	ldbu	r22,3(r16)
    1a4c:	b1003fcc 	andi	r4,r22,255
    1a50:	a1000236 	bltu	r20,r4,1a5c <dir_register+0x134>
    1a54:	003fcc06 	br	1988 <dir_register+0x60>
    1a58:	80800817 	ldw	r2,32(r16)
    1a5c:	81000043 	ldbu	r4,1(r16)
    1a60:	88a3883a 	add	r17,r17,r2
    1a64:	e00b883a 	mov	r5,fp
    1a68:	880d883a 	mov	r6,r17
    1a6c:	01c00044 	movi	r7,1
    1a70:	b5bfffc4 	addi	r22,r22,-1
    1a74:	0006fbc0 	call	6fbc <ffs_DiskIOWrite>
    1a78:	b0803fcc 	andi	r2,r22,255
    1a7c:	153ff61e 	bne	r2,r20,1a58 <dir_register+0x130>
    1a80:	b83fc226 	beq	r23,zero,198c <dir_register+0x64>
    1a84:	81000043 	ldbu	r4,1(r16)
    1a88:	81400d04 	addi	r5,r16,52
    1a8c:	b80d883a 	mov	r6,r23
    1a90:	01c00044 	movi	r7,1
    1a94:	0006da00 	call	6da0 <ffs_DiskIORead>
    1a98:	10002e1e 	bne	r2,zero,1b54 <dir_register+0x22c>
    1a9c:	85c00c15 	stw	r23,48(r16)
    1aa0:	003fba06 	br	198c <dir_register+0x64>
    1aa4:	1500b226 	beq	r2,r20,1d70 <dir_register+0x448>
    1aa8:	00bfffc4 	movi	r2,-1
    1aac:	30802926 	beq	r6,r2,1b54 <dir_register+0x22c>
    1ab0:	99000017 	ldw	r4,0(r19)
    1ab4:	000b883a 	mov	r5,zero
    1ab8:	d9800015 	stw	r6,0(sp)
    1abc:	00005200 	call	520 <move_window>
    1ac0:	d9800017 	ldw	r6,0(sp)
    1ac4:	1000231e 	bne	r2,zero,1b54 <dir_register+0x22c>
    1ac8:	98800017 	ldw	r2,0(r19)
    1acc:	10c00d04 	addi	r3,r2,52
    1ad0:	10808d04 	addi	r2,r2,564
    1ad4:	18000015 	stw	zero,0(r3)
    1ad8:	18c00104 	addi	r3,r3,4
    1adc:	18bffd1e 	bne	r3,r2,1ad4 <dir_register+0x1ac>
    1ae0:	98c00017 	ldw	r3,0(r19)
    1ae4:	35ffff84 	addi	r23,r6,-2
    1ae8:	18800717 	ldw	r2,28(r3)
    1aec:	10bfff84 	addi	r2,r2,-2
    1af0:	b880b32e 	bgeu	r23,r2,1dc0 <dir_register+0x498>
    1af4:	18800083 	ldbu	r2,2(r3)
    1af8:	19000b17 	ldw	r4,44(r3)
    1afc:	b88b383a 	mul	r5,r23,r2
    1b00:	2909883a 	add	r4,r5,r4
    1b04:	19000c15 	stw	r4,48(r3)
    1b08:	1000b026 	beq	r2,zero,1dcc <dir_register+0x4a4>
    1b0c:	0021883a 	mov	r16,zero
    1b10:	00000606 	br	1b2c <dir_register+0x204>
    1b14:	98c00017 	ldw	r3,0(r19)
    1b18:	19400c17 	ldw	r5,48(r3)
    1b1c:	18800083 	ldbu	r2,2(r3)
    1b20:	29400044 	addi	r5,r5,1
    1b24:	19400c15 	stw	r5,48(r3)
    1b28:	2080a92e 	bgeu	r4,r2,1dd0 <dir_register+0x4a8>
    1b2c:	00800044 	movi	r2,1
    1b30:	18800105 	stb	r2,4(r3)
    1b34:	99000017 	ldw	r4,0(r19)
    1b38:	000b883a 	mov	r5,zero
    1b3c:	d9800015 	stw	r6,0(sp)
    1b40:	84000044 	addi	r16,r16,1
    1b44:	00005200 	call	520 <move_window>
    1b48:	81003fcc 	andi	r4,r16,255
    1b4c:	d9800017 	ldw	r6,0(sp)
    1b50:	103ff026 	beq	r2,zero,1b14 <dir_register+0x1ec>
    1b54:	04800044 	movi	r18,1
    1b58:	003f9606 	br	19b4 <dir_register+0x8c>
    1b5c:	9c000017 	ldw	r16,0(r19)
    1b60:	e004917a 	slli	r2,fp,5
    1b64:	9c40018d 	sth	r17,6(r19)
    1b68:	10800d04 	addi	r2,r2,52
    1b6c:	8085883a 	add	r2,r16,r2
    1b70:	98800515 	stw	r2,20(r19)
    1b74:	003f8006 	br	1978 <dir_register+0x50>
    1b78:	9c000017 	ldw	r16,0(r19)
    1b7c:	9d400417 	ldw	r21,16(r19)
    1b80:	84400c17 	ldw	r17,48(r16)
    1b84:	ac400426 	beq	r21,r17,1b98 <dir_register+0x270>
    1b88:	80800103 	ldbu	r2,4(r16)
    1b8c:	10003b1e 	bne	r2,zero,1c7c <dir_register+0x354>
    1b90:	a800561e 	bne	r21,zero,1cec <dir_register+0x3c4>
    1b94:	99c00517 	ldw	r7,20(r19)
    1b98:	01cdc83a 	sub	r6,zero,r7
    1b9c:	318000cc 	andi	r6,r6,3
    1ba0:	3807883a 	mov	r3,r7
    1ba4:	30008426 	beq	r6,zero,1db8 <dir_register+0x490>
    1ba8:	000b883a 	mov	r5,zero
    1bac:	010007c4 	movi	r4,31
    1bb0:	18000005 	stb	zero,0(r3)
    1bb4:	2145c83a 	sub	r2,r4,r5
    1bb8:	29400044 	addi	r5,r5,1
    1bbc:	18c00044 	addi	r3,r3,1
    1bc0:	29bffb36 	bltu	r5,r6,1bb0 <dir_register+0x288>
    1bc4:	02400804 	movi	r9,32
    1bc8:	4993c83a 	sub	r9,r9,r6
    1bcc:	4808d0ba 	srli	r4,r9,2
    1bd0:	2111883a 	add	r8,r4,r4
    1bd4:	4211883a 	add	r8,r8,r8
    1bd8:	40000926 	beq	r8,zero,1c00 <dir_register+0x2d8>
    1bdc:	398d883a 	add	r6,r7,r6
    1be0:	000b883a 	mov	r5,zero
    1be4:	30000015 	stw	zero,0(r6)
    1be8:	29400044 	addi	r5,r5,1
    1bec:	31800104 	addi	r6,r6,4
    1bf0:	293ffc36 	bltu	r5,r4,1be4 <dir_register+0x2bc>
    1bf4:	1a07883a 	add	r3,r3,r8
    1bf8:	1205c83a 	sub	r2,r2,r8
    1bfc:	4a000426 	beq	r9,r8,1c10 <dir_register+0x2e8>
    1c00:	1885883a 	add	r2,r3,r2
    1c04:	18000005 	stb	zero,0(r3)
    1c08:	18c00044 	addi	r3,r3,1
    1c0c:	18bffd1e 	bne	r3,r2,1c04 <dir_register+0x2dc>
    1c10:	98c00617 	ldw	r3,24(r19)
    1c14:	38c4b03a 	or	r2,r7,r3
    1c18:	108000cc 	andi	r2,r2,3
    1c1c:	1000641e 	bne	r2,zero,1db0 <dir_register+0x488>
    1c20:	39000104 	addi	r4,r7,4
    1c24:	18800104 	addi	r2,r3,4
    1c28:	1909403a 	cmpgeu	r4,r3,r4
    1c2c:	3885403a 	cmpgeu	r2,r7,r2
    1c30:	2084b03a 	or	r2,r4,r2
    1c34:	10005e26 	beq	r2,zero,1db0 <dir_register+0x488>
    1c38:	18800017 	ldw	r2,0(r3)
    1c3c:	39c00204 	addi	r7,r7,8
    1c40:	18c00204 	addi	r3,r3,8
    1c44:	38bffe15 	stw	r2,-8(r7)
    1c48:	18bfff17 	ldw	r2,-4(r3)
    1c4c:	010000c4 	movi	r4,3
    1c50:	38bfff15 	stw	r2,-4(r7)
    1c54:	1909883a 	add	r4,r3,r4
    1c58:	18800003 	ldbu	r2,0(r3)
    1c5c:	39c00044 	addi	r7,r7,1
    1c60:	18c00044 	addi	r3,r3,1
    1c64:	38bfffc5 	stb	r2,-1(r7)
    1c68:	193ffb1e 	bne	r3,r4,1c58 <dir_register+0x330>
    1c6c:	98800017 	ldw	r2,0(r19)
    1c70:	00c00044 	movi	r3,1
    1c74:	10c00105 	stb	r3,4(r2)
    1c78:	003f4e06 	br	19b4 <dir_register+0x8c>
    1c7c:	81000043 	ldbu	r4,1(r16)
    1c80:	85800d04 	addi	r22,r16,52
    1c84:	05c00044 	movi	r23,1
    1c88:	b00b883a 	mov	r5,r22
    1c8c:	880d883a 	mov	r6,r17
    1c90:	b80f883a 	mov	r7,r23
    1c94:	0006fbc0 	call	6fbc <ffs_DiskIOWrite>
    1c98:	103fae1e 	bne	r2,zero,1b54 <dir_register+0x22c>
    1c9c:	80800817 	ldw	r2,32(r16)
    1ca0:	80c00917 	ldw	r3,36(r16)
    1ca4:	80000105 	stb	zero,4(r16)
    1ca8:	10c7883a 	add	r3,r2,r3
    1cac:	88ffb82e 	bgeu	r17,r3,1b90 <dir_register+0x268>
    1cb0:	850000c3 	ldbu	r20,3(r16)
    1cb4:	a0c03fcc 	andi	r3,r20,255
    1cb8:	b8c00236 	bltu	r23,r3,1cc4 <dir_register+0x39c>
    1cbc:	003fb406 	br	1b90 <dir_register+0x268>
    1cc0:	80800817 	ldw	r2,32(r16)
    1cc4:	81000043 	ldbu	r4,1(r16)
    1cc8:	88a3883a 	add	r17,r17,r2
    1ccc:	b00b883a 	mov	r5,r22
    1cd0:	880d883a 	mov	r6,r17
    1cd4:	01c00044 	movi	r7,1
    1cd8:	a53fffc4 	addi	r20,r20,-1
    1cdc:	0006fbc0 	call	6fbc <ffs_DiskIOWrite>
    1ce0:	a0803fcc 	andi	r2,r20,255
    1ce4:	15fff61e 	bne	r2,r23,1cc0 <dir_register+0x398>
    1ce8:	a83faa26 	beq	r21,zero,1b94 <dir_register+0x26c>
    1cec:	81000043 	ldbu	r4,1(r16)
    1cf0:	81400d04 	addi	r5,r16,52
    1cf4:	a80d883a 	mov	r6,r21
    1cf8:	01c00044 	movi	r7,1
    1cfc:	0006da00 	call	6da0 <ffs_DiskIORead>
    1d00:	103f941e 	bne	r2,zero,1b54 <dir_register+0x22c>
    1d04:	85400c15 	stw	r21,48(r16)
    1d08:	99c00517 	ldw	r7,20(r19)
    1d0c:	003fa206 	br	1b98 <dir_register+0x270>
    1d10:	80800083 	ldbu	r2,2(r16)
    1d14:	2008d13a 	srli	r4,r4,4
    1d18:	10bfffc4 	addi	r2,r2,-1
    1d1c:	1104703a 	and	r2,r2,r4
    1d20:	103f8f1e 	bne	r2,zero,1b60 <dir_register+0x238>
    1d24:	a140122e 	bgeu	r20,r5,1d70 <dir_register+0x448>
    1d28:	80800717 	ldw	r2,28(r16)
    1d2c:	2880102e 	bgeu	r5,r2,1d70 <dir_register+0x448>
    1d30:	8009883a 	mov	r4,r16
    1d34:	00012280 	call	1228 <get_fat.part.2>
    1d38:	100d883a 	mov	r6,r2
    1d3c:	a0800c2e 	bgeu	r20,r2,1d70 <dir_register+0x448>
    1d40:	00bfffc4 	movi	r2,-1
    1d44:	30bf8326 	beq	r6,r2,1b54 <dir_register+0x22c>
    1d48:	9c000017 	ldw	r16,0(r19)
    1d4c:	80800717 	ldw	r2,28(r16)
    1d50:	30800936 	bltu	r6,r2,1d78 <dir_register+0x450>
    1d54:	99400317 	ldw	r5,12(r19)
    1d58:	8009883a 	mov	r4,r16
    1d5c:	00017700 	call	1770 <create_chain>
    1d60:	100d883a 	mov	r6,r2
    1d64:	103f4f1e 	bne	r2,zero,1aa4 <dir_register+0x17c>
    1d68:	048001c4 	movi	r18,7
    1d6c:	003f1106 	br	19b4 <dir_register+0x8c>
    1d70:	04800084 	movi	r18,2
    1d74:	003f0f06 	br	19b4 <dir_register+0x8c>
    1d78:	35ffff84 	addi	r23,r6,-2
    1d7c:	80800717 	ldw	r2,28(r16)
    1d80:	99800315 	stw	r6,12(r19)
    1d84:	10bfff84 	addi	r2,r2,-2
    1d88:	b880062e 	bgeu	r23,r2,1da4 <dir_register+0x47c>
    1d8c:	80c00083 	ldbu	r3,2(r16)
    1d90:	80800b17 	ldw	r2,44(r16)
    1d94:	b8c7383a 	mul	r3,r23,r3
    1d98:	18af883a 	add	r23,r3,r2
    1d9c:	9dc00415 	stw	r23,16(r19)
    1da0:	003f6f06 	br	1b60 <dir_register+0x238>
    1da4:	002f883a 	mov	r23,zero
    1da8:	9dc00415 	stw	r23,16(r19)
    1dac:	003f6c06 	br	1b60 <dir_register+0x238>
    1db0:	010002c4 	movi	r4,11
    1db4:	003fa706 	br	1c54 <dir_register+0x32c>
    1db8:	00800804 	movi	r2,32
    1dbc:	003f8106 	br	1bc4 <dir_register+0x29c>
    1dc0:	18800083 	ldbu	r2,2(r3)
    1dc4:	0009883a 	mov	r4,zero
    1dc8:	003f4e06 	br	1b04 <dir_register+0x1dc>
    1dcc:	0009883a 	mov	r4,zero
    1dd0:	18800c17 	ldw	r2,48(r3)
    1dd4:	1821883a 	mov	r16,r3
    1dd8:	1109c83a 	sub	r4,r2,r4
    1ddc:	19000c15 	stw	r4,48(r3)
    1de0:	003fe606 	br	1d7c <dir_register+0x454>

00001de4 <dir_next.constprop.8>:
    1de4:	2080018b 	ldhu	r2,6(r4)
    1de8:	defffb04 	addi	sp,sp,-20
    1dec:	dc400115 	stw	r17,4(sp)
    1df0:	10800044 	addi	r2,r2,1
    1df4:	dc000015 	stw	r16,0(sp)
    1df8:	dfc00415 	stw	ra,16(sp)
    1dfc:	dcc00315 	stw	r19,12(sp)
    1e00:	dc800215 	stw	r18,8(sp)
    1e04:	10ffffcc 	andi	r3,r2,65535
    1e08:	2021883a 	mov	r16,r4
    1e0c:	1023883a 	mov	r17,r2
    1e10:	1800081e 	bne	r3,zero,1e34 <dir_next.constprop.8+0x50>
    1e14:	00800104 	movi	r2,4
    1e18:	dfc00417 	ldw	ra,16(sp)
    1e1c:	dcc00317 	ldw	r19,12(sp)
    1e20:	dc800217 	ldw	r18,8(sp)
    1e24:	dc400117 	ldw	r17,4(sp)
    1e28:	dc000017 	ldw	r16,0(sp)
    1e2c:	dec00504 	addi	sp,sp,20
    1e30:	f800283a 	ret
    1e34:	21000417 	ldw	r4,16(r4)
    1e38:	203ff626 	beq	r4,zero,1e14 <dir_next.constprop.8+0x30>
    1e3c:	148003cc 	andi	r18,r2,15
    1e40:	90000826 	beq	r18,zero,1e64 <dir_next.constprop.8+0x80>
    1e44:	81000017 	ldw	r4,0(r16)
    1e48:	9024917a 	slli	r18,r18,5
    1e4c:	8440018d 	sth	r17,6(r16)
    1e50:	0005883a 	mov	r2,zero
    1e54:	94800d04 	addi	r18,r18,52
    1e58:	2489883a 	add	r4,r4,r18
    1e5c:	81000515 	stw	r4,20(r16)
    1e60:	003fed06 	br	1e18 <dir_next.constprop.8+0x34>
    1e64:	81400317 	ldw	r5,12(r16)
    1e68:	21000044 	addi	r4,r4,1
    1e6c:	81000415 	stw	r4,16(r16)
    1e70:	81000017 	ldw	r4,0(r16)
    1e74:	28001a26 	beq	r5,zero,1ee0 <dir_next.constprop.8+0xfc>
    1e78:	20800083 	ldbu	r2,2(r4)
    1e7c:	1806d13a 	srli	r3,r3,4
    1e80:	10bfffc4 	addi	r2,r2,-1
    1e84:	10c6703a 	and	r3,r2,r3
    1e88:	183fef1e 	bne	r3,zero,1e48 <dir_next.constprop.8+0x64>
    1e8c:	04c00044 	movi	r19,1
    1e90:	9940162e 	bgeu	r19,r5,1eec <dir_next.constprop.8+0x108>
    1e94:	20800717 	ldw	r2,28(r4)
    1e98:	2880142e 	bgeu	r5,r2,1eec <dir_next.constprop.8+0x108>
    1e9c:	00012280 	call	1228 <get_fat.part.2>
    1ea0:	9880122e 	bgeu	r19,r2,1eec <dir_next.constprop.8+0x108>
    1ea4:	00ffffc4 	movi	r3,-1
    1ea8:	10c01526 	beq	r2,r3,1f00 <dir_next.constprop.8+0x11c>
    1eac:	81000017 	ldw	r4,0(r16)
    1eb0:	20c00717 	ldw	r3,28(r4)
    1eb4:	10ffd72e 	bgeu	r2,r3,1e14 <dir_next.constprop.8+0x30>
    1eb8:	80800315 	stw	r2,12(r16)
    1ebc:	18ffff84 	addi	r3,r3,-2
    1ec0:	10bfff84 	addi	r2,r2,-2
    1ec4:	10c00b2e 	bgeu	r2,r3,1ef4 <dir_next.constprop.8+0x110>
    1ec8:	21400083 	ldbu	r5,2(r4)
    1ecc:	20c00b17 	ldw	r3,44(r4)
    1ed0:	1145383a 	mul	r2,r2,r5
    1ed4:	10c5883a 	add	r2,r2,r3
    1ed8:	80800415 	stw	r2,16(r16)
    1edc:	003fda06 	br	1e48 <dir_next.constprop.8+0x64>
    1ee0:	2080020b 	ldhu	r2,8(r4)
    1ee4:	18bfcb2e 	bgeu	r3,r2,1e14 <dir_next.constprop.8+0x30>
    1ee8:	003fd706 	br	1e48 <dir_next.constprop.8+0x64>
    1eec:	00800084 	movi	r2,2
    1ef0:	003fc906 	br	1e18 <dir_next.constprop.8+0x34>
    1ef4:	0005883a 	mov	r2,zero
    1ef8:	80800415 	stw	r2,16(r16)
    1efc:	003fd206 	br	1e48 <dir_next.constprop.8+0x64>
    1f00:	9805883a 	mov	r2,r19
    1f04:	003fc406 	br	1e18 <dir_next.constprop.8+0x34>

00001f08 <follow_path>:
    1f08:	defff504 	addi	sp,sp,-44
    1f0c:	ddc00815 	stw	r23,32(sp)
    1f10:	dc000115 	stw	r16,4(sp)
    1f14:	dfc00a15 	stw	ra,40(sp)
    1f18:	df000915 	stw	fp,36(sp)
    1f1c:	dd800715 	stw	r22,28(sp)
    1f20:	dd400615 	stw	r21,24(sp)
    1f24:	dd000515 	stw	r20,20(sp)
    1f28:	dcc00415 	stw	r19,16(sp)
    1f2c:	dc800315 	stw	r18,12(sp)
    1f30:	dc400215 	stw	r17,8(sp)
    1f34:	28800007 	ldb	r2,0(r5)
    1f38:	00c00bc4 	movi	r3,47
    1f3c:	2821883a 	mov	r16,r5
    1f40:	202f883a 	mov	r23,r4
    1f44:	10c0f026 	beq	r2,r3,2308 <follow_path+0x400>
    1f48:	00c01704 	movi	r3,92
    1f4c:	10c0ee26 	beq	r2,r3,2308 <follow_path+0x400>
    1f50:	20800017 	ldw	r2,0(r4)
    1f54:	00c007c4 	movi	r3,31
    1f58:	10800617 	ldw	r2,24(r2)
    1f5c:	20800215 	stw	r2,8(r4)
    1f60:	80800003 	ldbu	r2,0(r16)
    1f64:	1880ed2e 	bgeu	r3,r2,231c <follow_path+0x414>
    1f68:	b8c00617 	ldw	r3,24(r23)
    1f6c:	04800bc4 	movi	r18,47
    1f70:	04c01704 	movi	r19,92
    1f74:	05000804 	movi	r20,32
    1f78:	80800007 	ldb	r2,0(r16)
    1f7c:	14800126 	beq	r2,r18,1f84 <follow_path+0x7c>
    1f80:	14c0021e 	bne	r2,r19,1f8c <follow_path+0x84>
    1f84:	84000044 	addi	r16,r16,1
    1f88:	003ffb06 	br	1f78 <follow_path+0x70>
    1f8c:	1d000005 	stb	r20,0(r3)
    1f90:	1d000045 	stb	r20,1(r3)
    1f94:	1d000085 	stb	r20,2(r3)
    1f98:	1d0000c5 	stb	r20,3(r3)
    1f9c:	1d000105 	stb	r20,4(r3)
    1fa0:	1d000145 	stb	r20,5(r3)
    1fa4:	1d000185 	stb	r20,6(r3)
    1fa8:	1d0001c5 	stb	r20,7(r3)
    1fac:	1d000205 	stb	r20,8(r3)
    1fb0:	1d000245 	stb	r20,9(r3)
    1fb4:	1d000285 	stb	r20,10(r3)
    1fb8:	81000007 	ldb	r4,0(r16)
    1fbc:	00800b84 	movi	r2,46
    1fc0:	20802c26 	beq	r4,r2,2074 <follow_path+0x16c>
    1fc4:	02400204 	movi	r9,8
    1fc8:	0011883a 	mov	r8,zero
    1fcc:	000d883a 	mov	r6,zero
    1fd0:	0017883a 	mov	r11,zero
    1fd4:	02800804 	movi	r10,32
    1fd8:	1019883a 	mov	r12,r2
    1fdc:	481f883a 	mov	r15,r9
    1fe0:	03800884 	movi	r14,34
    1fe4:	03400644 	movi	r13,25
    1fe8:	8189883a 	add	r4,r16,r6
    1fec:	21c00003 	ldbu	r7,0(r4)
    1ff0:	31800044 	addi	r6,r6,1
    1ff4:	39403fcc 	andi	r5,r7,255
    1ff8:	5140e02e 	bgeu	r10,r5,237c <follow_path+0x474>
    1ffc:	2c80cf26 	beq	r5,r18,233c <follow_path+0x434>
    2000:	2cc0ce26 	beq	r5,r19,233c <follow_path+0x434>
    2004:	2b00f126 	beq	r5,r12,23cc <follow_path+0x4c4>
    2008:	4240242e 	bgeu	r8,r9,209c <follow_path+0x194>
    200c:	38803fcc 	andi	r2,r7,255
    2010:	1080201c 	xori	r2,r2,128
    2014:	10bfe004 	addi	r2,r2,-128
    2018:	10002d16 	blt	r2,zero,20d0 <follow_path+0x1c8>
    201c:	2b801f26 	beq	r5,r14,209c <follow_path+0x194>
    2020:	00800134 	movhi	r2,4
    2024:	109b8944 	addi	r2,r2,28197
    2028:	00000106 	br	2030 <follow_path+0x128>
    202c:	29001b26 	beq	r5,r4,209c <follow_path+0x194>
    2030:	11000007 	ldb	r4,0(r2)
    2034:	10800044 	addi	r2,r2,1
    2038:	203ffc1e 	bne	r4,zero,202c <follow_path+0x124>
    203c:	38bfefc4 	addi	r2,r7,-65
    2040:	10803fcc 	andi	r2,r2,255
    2044:	68800536 	bltu	r13,r2,205c <follow_path+0x154>
    2048:	5ac00094 	ori	r11,r11,2
    204c:	1a05883a 	add	r2,r3,r8
    2050:	11c00005 	stb	r7,0(r2)
    2054:	42000044 	addi	r8,r8,1
    2058:	003fe306 	br	1fe8 <follow_path+0xe0>
    205c:	38bfe7c4 	addi	r2,r7,-97
    2060:	10803fcc 	andi	r2,r2,255
    2064:	68bff936 	bltu	r13,r2,204c <follow_path+0x144>
    2068:	5ac00054 	ori	r11,r11,1
    206c:	39fff804 	addi	r7,r7,-32
    2070:	003ff606 	br	204c <follow_path+0x144>
    2074:	19000005 	stb	r4,0(r3)
    2078:	80800043 	ldbu	r2,1(r16)
    207c:	1100c21e 	bne	r2,r4,2388 <follow_path+0x480>
    2080:	18800045 	stb	r2,1(r3)
    2084:	80800083 	ldbu	r2,2(r16)
    2088:	010000c4 	movi	r4,3
    208c:	14801726 	beq	r2,r18,20ec <follow_path+0x1e4>
    2090:	14c01626 	beq	r2,r19,20ec <follow_path+0x1e4>
    2094:	01400804 	movi	r5,32
    2098:	2880a52e 	bgeu	r5,r2,2330 <follow_path+0x428>
    209c:	00800184 	movi	r2,6
    20a0:	dfc00a17 	ldw	ra,40(sp)
    20a4:	df000917 	ldw	fp,36(sp)
    20a8:	ddc00817 	ldw	r23,32(sp)
    20ac:	dd800717 	ldw	r22,28(sp)
    20b0:	dd400617 	ldw	r21,24(sp)
    20b4:	dd000517 	ldw	r20,20(sp)
    20b8:	dcc00417 	ldw	r19,16(sp)
    20bc:	dc800317 	ldw	r18,12(sp)
    20c0:	dc400217 	ldw	r17,8(sp)
    20c4:	dc000117 	ldw	r16,4(sp)
    20c8:	dec00b04 	addi	sp,sp,44
    20cc:	f800283a 	ret
    20d0:	00800134 	movhi	r2,4
    20d4:	109b9a04 	addi	r2,r2,28264
    20d8:	114b883a 	add	r5,r2,r5
    20dc:	29ffe003 	ldbu	r7,-128(r5)
    20e0:	5ac000d4 	ori	r11,r11,3
    20e4:	39403fcc 	andi	r5,r7,255
    20e8:	003fcc06 	br	201c <follow_path+0x114>
    20ec:	8121883a 	add	r16,r16,r4
    20f0:	00800804 	movi	r2,32
    20f4:	188002c5 	stb	r2,11(r3)
    20f8:	b809883a 	mov	r4,r23
    20fc:	000b883a 	mov	r5,zero
    2100:	000161c0 	call	161c <dir_sdi>
    2104:	1000701e 	bne	r2,zero,22c8 <follow_path+0x3c0>
    2108:	bc400017 	ldw	r17,0(r23)
    210c:	bd400417 	ldw	r21,16(r23)
    2110:	8f000c17 	ldw	fp,48(r17)
    2114:	af000326 	beq	r21,fp,2124 <follow_path+0x21c>
    2118:	88800103 	ldbu	r2,4(r17)
    211c:	10003c1e 	bne	r2,zero,2210 <follow_path+0x308>
    2120:	a800591e 	bne	r21,zero,2288 <follow_path+0x380>
    2124:	b8800517 	ldw	r2,20(r23)
    2128:	11000003 	ldbu	r4,0(r2)
    212c:	20006026 	beq	r4,zero,22b0 <follow_path+0x3a8>
    2130:	114002c3 	ldbu	r5,11(r2)
    2134:	28c0020c 	andi	r3,r5,8
    2138:	18c03fcc 	andi	r3,r3,255
    213c:	18005f1e 	bne	r3,zero,22bc <follow_path+0x3b4>
    2140:	b8c00617 	ldw	r3,24(r23)
    2144:	19800003 	ldbu	r6,0(r3)
    2148:	21805c1e 	bne	r4,r6,22bc <follow_path+0x3b4>
    214c:	11800043 	ldbu	r6,1(r2)
    2150:	19000043 	ldbu	r4,1(r3)
    2154:	3100591e 	bne	r6,r4,22bc <follow_path+0x3b4>
    2158:	11800083 	ldbu	r6,2(r2)
    215c:	19000083 	ldbu	r4,2(r3)
    2160:	3100561e 	bne	r6,r4,22bc <follow_path+0x3b4>
    2164:	118000c3 	ldbu	r6,3(r2)
    2168:	190000c3 	ldbu	r4,3(r3)
    216c:	3100531e 	bne	r6,r4,22bc <follow_path+0x3b4>
    2170:	11800103 	ldbu	r6,4(r2)
    2174:	19000103 	ldbu	r4,4(r3)
    2178:	3100501e 	bne	r6,r4,22bc <follow_path+0x3b4>
    217c:	11800143 	ldbu	r6,5(r2)
    2180:	19000143 	ldbu	r4,5(r3)
    2184:	31004d1e 	bne	r6,r4,22bc <follow_path+0x3b4>
    2188:	11800183 	ldbu	r6,6(r2)
    218c:	19000183 	ldbu	r4,6(r3)
    2190:	31004a1e 	bne	r6,r4,22bc <follow_path+0x3b4>
    2194:	118001c3 	ldbu	r6,7(r2)
    2198:	190001c3 	ldbu	r4,7(r3)
    219c:	3100471e 	bne	r6,r4,22bc <follow_path+0x3b4>
    21a0:	11800203 	ldbu	r6,8(r2)
    21a4:	19000203 	ldbu	r4,8(r3)
    21a8:	3100441e 	bne	r6,r4,22bc <follow_path+0x3b4>
    21ac:	11800243 	ldbu	r6,9(r2)
    21b0:	19000243 	ldbu	r4,9(r3)
    21b4:	3100411e 	bne	r6,r4,22bc <follow_path+0x3b4>
    21b8:	11800283 	ldbu	r6,10(r2)
    21bc:	19000283 	ldbu	r4,10(r3)
    21c0:	31003e1e 	bne	r6,r4,22bc <follow_path+0x3b4>
    21c4:	190002c3 	ldbu	r4,11(r3)
    21c8:	2100010c 	andi	r4,r4,4
    21cc:	21003fcc 	andi	r4,r4,255
    21d0:	2000491e 	bne	r4,zero,22f8 <follow_path+0x3f0>
    21d4:	2940040c 	andi	r5,r5,16
    21d8:	29403fcc 	andi	r5,r5,255
    21dc:	28007126 	beq	r5,zero,23a4 <follow_path+0x49c>
    21e0:	11000543 	ldbu	r4,21(r2)
    21e4:	11800503 	ldbu	r6,20(r2)
    21e8:	11c006c3 	ldbu	r7,27(r2)
    21ec:	2008923a 	slli	r4,r4,8
    21f0:	11400683 	ldbu	r5,26(r2)
    21f4:	3804923a 	slli	r2,r7,8
    21f8:	2188b03a 	or	r4,r4,r6
    21fc:	2008943a 	slli	r4,r4,16
    2200:	1144b03a 	or	r2,r2,r5
    2204:	2084b03a 	or	r2,r4,r2
    2208:	b8800215 	stw	r2,8(r23)
    220c:	003f5a06 	br	1f78 <follow_path+0x70>
    2210:	89000043 	ldbu	r4,1(r17)
    2214:	88c00d04 	addi	r3,r17,52
    2218:	180b883a 	mov	r5,r3
    221c:	e00d883a 	mov	r6,fp
    2220:	01c00044 	movi	r7,1
    2224:	d8c00015 	stw	r3,0(sp)
    2228:	0006fbc0 	call	6fbc <ffs_DiskIOWrite>
    222c:	1000341e 	bne	r2,zero,2300 <follow_path+0x3f8>
    2230:	88800817 	ldw	r2,32(r17)
    2234:	89000917 	ldw	r4,36(r17)
    2238:	88000105 	stb	zero,4(r17)
    223c:	1109883a 	add	r4,r2,r4
    2240:	e13fb72e 	bgeu	fp,r4,2120 <follow_path+0x218>
    2244:	8d8000c3 	ldbu	r22,3(r17)
    2248:	00c00044 	movi	r3,1
    224c:	b1003fcc 	andi	r4,r22,255
    2250:	19000236 	bltu	r3,r4,225c <follow_path+0x354>
    2254:	003fb206 	br	2120 <follow_path+0x218>
    2258:	88800817 	ldw	r2,32(r17)
    225c:	89000043 	ldbu	r4,1(r17)
    2260:	d9400017 	ldw	r5,0(sp)
    2264:	e0b9883a 	add	fp,fp,r2
    2268:	e00d883a 	mov	r6,fp
    226c:	01c00044 	movi	r7,1
    2270:	0006fbc0 	call	6fbc <ffs_DiskIOWrite>
    2274:	b5bfffc4 	addi	r22,r22,-1
    2278:	b0803fcc 	andi	r2,r22,255
    227c:	00c00044 	movi	r3,1
    2280:	10fff51e 	bne	r2,r3,2258 <follow_path+0x350>
    2284:	a83fa726 	beq	r21,zero,2124 <follow_path+0x21c>
    2288:	89000043 	ldbu	r4,1(r17)
    228c:	89400d04 	addi	r5,r17,52
    2290:	a80d883a 	mov	r6,r21
    2294:	01c00044 	movi	r7,1
    2298:	0006da00 	call	6da0 <ffs_DiskIORead>
    229c:	1000181e 	bne	r2,zero,2300 <follow_path+0x3f8>
    22a0:	b8800517 	ldw	r2,20(r23)
    22a4:	8d400c15 	stw	r21,48(r17)
    22a8:	11000003 	ldbu	r4,0(r2)
    22ac:	203fa01e 	bne	r4,zero,2130 <follow_path+0x228>
    22b0:	b8c00617 	ldw	r3,24(r23)
    22b4:	190002c3 	ldbu	r4,11(r3)
    22b8:	00000706 	br	22d8 <follow_path+0x3d0>
    22bc:	b809883a 	mov	r4,r23
    22c0:	0001de40 	call	1de4 <dir_next.constprop.8>
    22c4:	103f9026 	beq	r2,zero,2108 <follow_path+0x200>
    22c8:	b8c00617 	ldw	r3,24(r23)
    22cc:	01400104 	movi	r5,4
    22d0:	190002c3 	ldbu	r4,11(r3)
    22d4:	117f721e 	bne	r2,r5,20a0 <follow_path+0x198>
    22d8:	2080080c 	andi	r2,r4,32
    22dc:	10803fcc 	andi	r2,r2,255
    22e0:	10002b26 	beq	r2,zero,2390 <follow_path+0x488>
    22e4:	2100010c 	andi	r4,r4,4
    22e8:	b8000215 	stw	zero,8(r23)
    22ec:	b8000515 	stw	zero,20(r23)
    22f0:	21003fcc 	andi	r4,r4,255
    22f4:	203f2026 	beq	r4,zero,1f78 <follow_path+0x70>
    22f8:	0005883a 	mov	r2,zero
    22fc:	003f6806 	br	20a0 <follow_path+0x198>
    2300:	00800044 	movi	r2,1
    2304:	003f6606 	br	20a0 <follow_path+0x198>
    2308:	84000044 	addi	r16,r16,1
    230c:	b8000215 	stw	zero,8(r23)
    2310:	80800003 	ldbu	r2,0(r16)
    2314:	00c007c4 	movi	r3,31
    2318:	18bf1336 	bltu	r3,r2,1f68 <follow_path+0x60>
    231c:	b809883a 	mov	r4,r23
    2320:	000b883a 	mov	r5,zero
    2324:	000161c0 	call	161c <dir_sdi>
    2328:	b8000515 	stw	zero,20(r23)
    232c:	003f5c06 	br	20a0 <follow_path+0x198>
    2330:	8121883a 	add	r16,r16,r4
    2334:	00800904 	movi	r2,36
    2338:	003f6e06 	br	20f4 <follow_path+0x1ec>
    233c:	81a1883a 	add	r16,r16,r6
    2340:	0005883a 	mov	r2,zero
    2344:	403f5526 	beq	r8,zero,209c <follow_path+0x194>
    2348:	19400003 	ldbu	r5,0(r3)
    234c:	01003944 	movi	r4,229
    2350:	29001b26 	beq	r5,r4,23c0 <follow_path+0x4b8>
    2354:	01000204 	movi	r4,8
    2358:	49001626 	beq	r9,r4,23b4 <follow_path+0x4ac>
    235c:	594000cc 	andi	r5,r11,3
    2360:	01000044 	movi	r4,1
    2364:	29001126 	beq	r5,r4,23ac <follow_path+0x4a4>
    2368:	5ac0030c 	andi	r11,r11,12
    236c:	01000104 	movi	r4,4
    2370:	593f601e 	bne	r11,r4,20f4 <follow_path+0x1ec>
    2374:	10800214 	ori	r2,r2,8
    2378:	003f5e06 	br	20f4 <follow_path+0x1ec>
    237c:	81a1883a 	add	r16,r16,r6
    2380:	00800104 	movi	r2,4
    2384:	003fef06 	br	2344 <follow_path+0x43c>
    2388:	01000084 	movi	r4,2
    238c:	003f3f06 	br	208c <follow_path+0x184>
    2390:	2080010c 	andi	r2,r4,4
    2394:	10803fcc 	andi	r2,r2,255
    2398:	1005003a 	cmpeq	r2,r2,zero
    239c:	10800104 	addi	r2,r2,4
    23a0:	003f3f06 	br	20a0 <follow_path+0x198>
    23a4:	00800144 	movi	r2,5
    23a8:	003f3d06 	br	20a0 <follow_path+0x198>
    23ac:	10800414 	ori	r2,r2,16
    23b0:	003fed06 	br	2368 <follow_path+0x460>
    23b4:	5ad7883a 	add	r11,r11,r11
    23b8:	5ad7883a 	add	r11,r11,r11
    23bc:	003fe706 	br	235c <follow_path+0x454>
    23c0:	01000144 	movi	r4,5
    23c4:	19000005 	stb	r4,0(r3)
    23c8:	003fe206 	br	2354 <follow_path+0x44c>
    23cc:	4bff331e 	bne	r9,r15,209c <follow_path+0x194>
    23d0:	5ad7883a 	add	r11,r11,r11
    23d4:	4811883a 	mov	r8,r9
    23d8:	5ad7883a 	add	r11,r11,r11
    23dc:	024002c4 	movi	r9,11
    23e0:	003f0106 	br	1fe8 <follow_path+0xe0>

000023e4 <dir_read>:
    23e4:	defff704 	addi	sp,sp,-36
    23e8:	dd800615 	stw	r22,24(sp)
    23ec:	dd400515 	stw	r21,20(sp)
    23f0:	dcc00315 	stw	r19,12(sp)
    23f4:	dfc00815 	stw	ra,32(sp)
    23f8:	ddc00715 	stw	r23,28(sp)
    23fc:	dd000415 	stw	r20,16(sp)
    2400:	dc800215 	stw	r18,8(sp)
    2404:	dc400115 	stw	r17,4(sp)
    2408:	dc000015 	stw	r16,0(sp)
    240c:	2027883a 	mov	r19,r4
    2410:	00800104 	movi	r2,4
    2414:	05800044 	movi	r22,1
    2418:	05403944 	movi	r21,229
    241c:	00000c06 	br	2450 <dir_read+0x6c>
    2420:	84800c15 	stw	r18,48(r16)
    2424:	98c00517 	ldw	r3,20(r19)
    2428:	18800003 	ldbu	r2,0(r3)
    242c:	10004226 	beq	r2,zero,2538 <dir_read+0x154>
    2430:	15400426 	beq	r2,r21,2444 <dir_read+0x60>
    2434:	188002c3 	ldbu	r2,11(r3)
    2438:	1080020c 	andi	r2,r2,8
    243c:	10803fcc 	andi	r2,r2,255
    2440:	10003b26 	beq	r2,zero,2530 <dir_read+0x14c>
    2444:	9809883a 	mov	r4,r19
    2448:	0001de40 	call	1de4 <dir_next.constprop.8>
    244c:	10000f1e 	bne	r2,zero,248c <dir_read+0xa8>
    2450:	9c800417 	ldw	r18,16(r19)
    2454:	90003426 	beq	r18,zero,2528 <dir_read+0x144>
    2458:	9c000017 	ldw	r16,0(r19)
    245c:	84400c17 	ldw	r17,48(r16)
    2460:	947ff026 	beq	r18,r17,2424 <dir_read+0x40>
    2464:	80800103 	ldbu	r2,4(r16)
    2468:	1000141e 	bne	r2,zero,24bc <dir_read+0xd8>
    246c:	85000d04 	addi	r20,r16,52
    2470:	81000043 	ldbu	r4,1(r16)
    2474:	a00b883a 	mov	r5,r20
    2478:	900d883a 	mov	r6,r18
    247c:	01c00044 	movi	r7,1
    2480:	0006da00 	call	6da0 <ffs_DiskIORead>
    2484:	103fe626 	beq	r2,zero,2420 <dir_read+0x3c>
    2488:	00800044 	movi	r2,1
    248c:	98000415 	stw	zero,16(r19)
    2490:	dfc00817 	ldw	ra,32(sp)
    2494:	ddc00717 	ldw	r23,28(sp)
    2498:	dd800617 	ldw	r22,24(sp)
    249c:	dd400517 	ldw	r21,20(sp)
    24a0:	dd000417 	ldw	r20,16(sp)
    24a4:	dcc00317 	ldw	r19,12(sp)
    24a8:	dc800217 	ldw	r18,8(sp)
    24ac:	dc400117 	ldw	r17,4(sp)
    24b0:	dc000017 	ldw	r16,0(sp)
    24b4:	dec00904 	addi	sp,sp,36
    24b8:	f800283a 	ret
    24bc:	81000043 	ldbu	r4,1(r16)
    24c0:	85000d04 	addi	r20,r16,52
    24c4:	a00b883a 	mov	r5,r20
    24c8:	880d883a 	mov	r6,r17
    24cc:	01c00044 	movi	r7,1
    24d0:	0006fbc0 	call	6fbc <ffs_DiskIOWrite>
    24d4:	103fec1e 	bne	r2,zero,2488 <dir_read+0xa4>
    24d8:	80800817 	ldw	r2,32(r16)
    24dc:	80c00917 	ldw	r3,36(r16)
    24e0:	80000105 	stb	zero,4(r16)
    24e4:	10c7883a 	add	r3,r2,r3
    24e8:	88ffe12e 	bgeu	r17,r3,2470 <dir_read+0x8c>
    24ec:	85c000c3 	ldbu	r23,3(r16)
    24f0:	b8c03fcc 	andi	r3,r23,255
    24f4:	b0c00236 	bltu	r22,r3,2500 <dir_read+0x11c>
    24f8:	003fdd06 	br	2470 <dir_read+0x8c>
    24fc:	80800817 	ldw	r2,32(r16)
    2500:	81000043 	ldbu	r4,1(r16)
    2504:	88a3883a 	add	r17,r17,r2
    2508:	a00b883a 	mov	r5,r20
    250c:	880d883a 	mov	r6,r17
    2510:	01c00044 	movi	r7,1
    2514:	bdffffc4 	addi	r23,r23,-1
    2518:	0006fbc0 	call	6fbc <ffs_DiskIOWrite>
    251c:	b8803fcc 	andi	r2,r23,255
    2520:	15bff61e 	bne	r2,r22,24fc <dir_read+0x118>
    2524:	003fd206 	br	2470 <dir_read+0x8c>
    2528:	103fd926 	beq	r2,zero,2490 <dir_read+0xac>
    252c:	003fd706 	br	248c <dir_read+0xa8>
    2530:	0005883a 	mov	r2,zero
    2534:	003fd606 	br	2490 <dir_read+0xac>
    2538:	00800104 	movi	r2,4
    253c:	003fd306 	br	248c <dir_read+0xa8>

00002540 <clust2sect>:
    2540:	20800717 	ldw	r2,28(r4)
    2544:	297fff84 	addi	r5,r5,-2
    2548:	10bfff84 	addi	r2,r2,-2
    254c:	2880052e 	bgeu	r5,r2,2564 <clust2sect+0x24>
    2550:	20800083 	ldbu	r2,2(r4)
    2554:	20c00b17 	ldw	r3,44(r4)
    2558:	288b383a 	mul	r5,r5,r2
    255c:	28c5883a 	add	r2,r5,r3
    2560:	f800283a 	ret
    2564:	0005883a 	mov	r2,zero
    2568:	f800283a 	ret

0000256c <get_fat>:
    256c:	00c00044 	movi	r3,1
    2570:	1940032e 	bgeu	r3,r5,2580 <get_fat+0x14>
    2574:	20c00717 	ldw	r3,28(r4)
    2578:	28c0012e 	bgeu	r5,r3,2580 <get_fat+0x14>
    257c:	00012281 	jmpi	1228 <get_fat.part.2>
    2580:	00800044 	movi	r2,1
    2584:	f800283a 	ret

00002588 <put_fat>:
    2588:	00c00044 	movi	r3,1
    258c:	1940022e 	bgeu	r3,r5,2598 <put_fat+0x10>
    2590:	20c00717 	ldw	r3,28(r4)
    2594:	28c00236 	bltu	r5,r3,25a0 <put_fat+0x18>
    2598:	00800084 	movi	r2,2
    259c:	f800283a 	ret
    25a0:	0000dfc1 	jmpi	dfc <put_fat.part.4>

000025a4 <f_mount>:
    25a4:	21003fcc 	andi	r4,r4,255
    25a8:	20000226 	beq	r4,zero,25b4 <f_mount+0x10>
    25ac:	008002c4 	movi	r2,11
    25b0:	f800283a 	ret
    25b4:	d0a02e17 	ldw	r2,-32584(gp)
    25b8:	10000126 	beq	r2,zero,25c0 <f_mount+0x1c>
    25bc:	10000005 	stb	zero,0(r2)
    25c0:	28000126 	beq	r5,zero,25c8 <f_mount+0x24>
    25c4:	28000005 	stb	zero,0(r5)
    25c8:	d1602e15 	stw	r5,-32584(gp)
    25cc:	0005883a 	mov	r2,zero
    25d0:	f800283a 	ret

000025d4 <f_open>:
    25d4:	deffea04 	addi	sp,sp,-88
    25d8:	dd001015 	stw	r20,64(sp)
    25dc:	dcc00f15 	stw	r19,60(sp)
    25e0:	dc800e15 	stw	r18,56(sp)
    25e4:	dc400d15 	stw	r17,52(sp)
    25e8:	dfc01515 	stw	ra,84(sp)
    25ec:	df001415 	stw	fp,80(sp)
    25f0:	ddc01315 	stw	r23,76(sp)
    25f4:	dd801215 	stw	r22,72(sp)
    25f8:	dd401115 	stw	r21,68(sp)
    25fc:	dc000c15 	stw	r16,48(sp)
    2600:	3025883a 	mov	r18,r6
    2604:	d9400a15 	stw	r5,40(sp)
    2608:	20000015 	stw	zero,0(r4)
    260c:	2023883a 	mov	r17,r4
    2610:	d80b883a 	mov	r5,sp
    2614:	d9000a04 	addi	r4,sp,40
    2618:	3180078c 	andi	r6,r6,30
    261c:	00007c40 	call	7c4 <chk_mounted>
    2620:	d8c00704 	addi	r3,sp,28
    2624:	950007cc 	andi	r20,r18,31
    2628:	d8c00615 	stw	r3,24(sp)
    262c:	a027883a 	mov	r19,r20
    2630:	10001026 	beq	r2,zero,2674 <f_open+0xa0>
    2634:	9480070c 	andi	r18,r18,28
    2638:	90000226 	beq	r18,zero,2644 <f_open+0x70>
    263c:	00c00104 	movi	r3,4
    2640:	10c04f26 	beq	r2,r3,2780 <f_open+0x1ac>
    2644:	dfc01517 	ldw	ra,84(sp)
    2648:	df001417 	ldw	fp,80(sp)
    264c:	ddc01317 	ldw	r23,76(sp)
    2650:	dd801217 	ldw	r22,72(sp)
    2654:	dd401117 	ldw	r21,68(sp)
    2658:	dd001017 	ldw	r20,64(sp)
    265c:	dcc00f17 	ldw	r19,60(sp)
    2660:	dc800e17 	ldw	r18,56(sp)
    2664:	dc400d17 	ldw	r17,52(sp)
    2668:	dc000c17 	ldw	r16,48(sp)
    266c:	dec01604 	addi	sp,sp,88
    2670:	f800283a 	ret
    2674:	d9400a17 	ldw	r5,40(sp)
    2678:	d809883a 	mov	r4,sp
    267c:	0001f080 	call	1f08 <follow_path>
    2680:	dc000517 	ldw	r16,20(sp)
    2684:	103feb1e 	bne	r2,zero,2634 <f_open+0x60>
    2688:	80004726 	beq	r16,zero,27a8 <f_open+0x1d4>
    268c:	9080070c 	andi	r2,r18,28
    2690:	10000826 	beq	r2,zero,26b4 <f_open+0xe0>
    2694:	808002c3 	ldbu	r2,11(r16)
    2698:	1080044c 	andi	r2,r2,17
    269c:	1000101e 	bne	r2,zero,26e0 <f_open+0x10c>
    26a0:	9480010c 	andi	r18,r18,4
    26a4:	94803fcc 	andi	r18,r18,255
    26a8:	90003a26 	beq	r18,zero,2794 <f_open+0x1c0>
    26ac:	00800204 	movi	r2,8
    26b0:	003fe406 	br	2644 <f_open+0x70>
    26b4:	808002c3 	ldbu	r2,11(r16)
    26b8:	10c0040c 	andi	r3,r2,16
    26bc:	18c03fcc 	andi	r3,r3,255
    26c0:	18000226 	beq	r3,zero,26cc <f_open+0xf8>
    26c4:	00800104 	movi	r2,4
    26c8:	003fde06 	br	2644 <f_open+0x70>
    26cc:	90c0008c 	andi	r3,r18,2
    26d0:	18c03fcc 	andi	r3,r3,255
    26d4:	18000426 	beq	r3,zero,26e8 <f_open+0x114>
    26d8:	1080004c 	andi	r2,r2,1
    26dc:	10000226 	beq	r2,zero,26e8 <f_open+0x114>
    26e0:	008001c4 	movi	r2,7
    26e4:	003fd706 	br	2644 <f_open+0x70>
    26e8:	9480020c 	andi	r18,r18,8
    26ec:	94803fcc 	andi	r18,r18,255
    26f0:	dd000017 	ldw	r20,0(sp)
    26f4:	90000126 	beq	r18,zero,26fc <f_open+0x128>
    26f8:	9cc00814 	ori	r19,r19,32
    26fc:	a0800c17 	ldw	r2,48(r20)
    2700:	8cc00185 	stb	r19,6(r17)
    2704:	8c000815 	stw	r16,32(r17)
    2708:	88800715 	stw	r2,28(r17)
    270c:	81000543 	ldbu	r4,21(r16)
    2710:	81400503 	ldbu	r5,20(r16)
    2714:	80c006c3 	ldbu	r3,27(r16)
    2718:	2008923a 	slli	r4,r4,8
    271c:	80800683 	ldbu	r2,26(r16)
    2720:	1806923a 	slli	r3,r3,8
    2724:	2148b03a 	or	r4,r4,r5
    2728:	2008943a 	slli	r4,r4,16
    272c:	1886b03a 	or	r3,r3,r2
    2730:	a080018b 	ldhu	r2,6(r20)
    2734:	20c6b03a 	or	r3,r4,r3
    2738:	88c00415 	stw	r3,16(r17)
    273c:	80c007c3 	ldbu	r3,31(r16)
    2740:	81800783 	ldbu	r6,30(r16)
    2744:	81000743 	ldbu	r4,29(r16)
    2748:	1806963a 	slli	r3,r3,24
    274c:	300c943a 	slli	r6,r6,16
    2750:	81400703 	ldbu	r5,28(r16)
    2754:	2008923a 	slli	r4,r4,8
    2758:	1986b03a 	or	r3,r3,r6
    275c:	1946b03a 	or	r3,r3,r5
    2760:	1906b03a 	or	r3,r3,r4
    2764:	8880010d 	sth	r2,4(r17)
    2768:	88c00315 	stw	r3,12(r17)
    276c:	88000215 	stw	zero,8(r17)
    2770:	88000615 	stw	zero,24(r17)
    2774:	8d000015 	stw	r20,0(r17)
    2778:	0005883a 	mov	r2,zero
    277c:	003fb106 	br	2644 <f_open+0x70>
    2780:	d809883a 	mov	r4,sp
    2784:	00019280 	call	1928 <dir_register>
    2788:	a4c00214 	ori	r19,r20,8
    278c:	dc000517 	ldw	r16,20(sp)
    2790:	103fac1e 	bne	r2,zero,2644 <f_open+0x70>
    2794:	9880020c 	andi	r2,r19,8
    2798:	10803fcc 	andi	r2,r2,255
    279c:	1000041e 	bne	r2,zero,27b0 <f_open+0x1dc>
    27a0:	dd000017 	ldw	r20,0(sp)
    27a4:	003fd506 	br	26fc <f_open+0x128>
    27a8:	00800184 	movi	r2,6
    27ac:	003fa506 	br	2644 <f_open+0x70>
    27b0:	0007ab80 	call	7ab8 <get_fattime>
    27b4:	80c00543 	ldbu	r3,21(r16)
    27b8:	82000503 	ldbu	r8,20(r16)
    27bc:	848006c3 	ldbu	r18,27(r16)
    27c0:	1806923a 	slli	r3,r3,8
    27c4:	81000683 	ldbu	r4,26(r16)
    27c8:	100ed23a 	srli	r7,r2,8
    27cc:	100cd43a 	srli	r6,r2,16
    27d0:	100ad63a 	srli	r5,r2,24
    27d4:	1a06b03a 	or	r3,r3,r8
    27d8:	9024923a 	slli	r18,r18,8
    27dc:	1806943a 	slli	r3,r3,16
    27e0:	dd000017 	ldw	r20,0(sp)
    27e4:	80800385 	stb	r2,14(r16)
    27e8:	81c003c5 	stb	r7,15(r16)
    27ec:	81800405 	stb	r6,16(r16)
    27f0:	81400445 	stb	r5,17(r16)
    27f4:	800002c5 	stb	zero,11(r16)
    27f8:	80000705 	stb	zero,28(r16)
    27fc:	80000745 	stb	zero,29(r16)
    2800:	80000785 	stb	zero,30(r16)
    2804:	800007c5 	stb	zero,31(r16)
    2808:	9124b03a 	or	r18,r18,r4
    280c:	80000685 	stb	zero,26(r16)
    2810:	800006c5 	stb	zero,27(r16)
    2814:	80000505 	stb	zero,20(r16)
    2818:	80000545 	stb	zero,21(r16)
    281c:	00800044 	movi	r2,1
    2820:	1ca4b03a 	or	r18,r3,r18
    2824:	a0800105 	stb	r2,4(r20)
    2828:	903fb326 	beq	r18,zero,26f8 <f_open+0x124>
    282c:	a0800c17 	ldw	r2,48(r20)
    2830:	07000044 	movi	fp,1
    2834:	d8800b15 	stw	r2,44(sp)
    2838:	97000226 	beq	r18,fp,2844 <f_open+0x270>
    283c:	a0800717 	ldw	r2,28(r20)
    2840:	90800236 	bltu	r18,r2,284c <f_open+0x278>
    2844:	00800084 	movi	r2,2
    2848:	003f7e06 	br	2644 <f_open+0x70>
    284c:	902f883a 	mov	r23,r18
    2850:	05bfffc4 	movi	r22,-1
    2854:	00000e06 	br	2890 <f_open+0x2bc>
    2858:	b80b883a 	mov	r5,r23
    285c:	a009883a 	mov	r4,r20
    2860:	000d883a 	mov	r6,zero
    2864:	0000dfc0 	call	dfc <put_fat.part.4>
    2868:	a82f883a 	mov	r23,r21
    286c:	103f751e 	bne	r2,zero,2644 <f_open+0x70>
    2870:	a0800417 	ldw	r2,16(r20)
    2874:	11000044 	addi	r4,r2,1
    2878:	15800226 	beq	r2,r22,2884 <f_open+0x2b0>
    287c:	a1000415 	stw	r4,16(r20)
    2880:	a7000145 	stb	fp,5(r20)
    2884:	a0800717 	ldw	r2,28(r20)
    2888:	a8800e2e 	bgeu	r21,r2,28c4 <f_open+0x2f0>
    288c:	e5ffed2e 	bgeu	fp,r23,2844 <f_open+0x270>
    2890:	b80b883a 	mov	r5,r23
    2894:	a009883a 	mov	r4,r20
    2898:	00012280 	call	1228 <get_fat.part.2>
    289c:	102b883a 	mov	r21,r2
    28a0:	10000826 	beq	r2,zero,28c4 <f_open+0x2f0>
    28a4:	173fe726 	beq	r2,fp,2844 <f_open+0x270>
    28a8:	15800426 	beq	r2,r22,28bc <f_open+0x2e8>
    28ac:	a0800717 	ldw	r2,28(r20)
    28b0:	b8bfe936 	bltu	r23,r2,2858 <f_open+0x284>
    28b4:	00800084 	movi	r2,2
    28b8:	003f6206 	br	2644 <f_open+0x70>
    28bc:	00800044 	movi	r2,1
    28c0:	003f6006 	br	2644 <f_open+0x70>
    28c4:	dd000017 	ldw	r20,0(sp)
    28c8:	d8800b17 	ldw	r2,44(sp)
    28cc:	94bfffc4 	addi	r18,r18,-1
    28d0:	a5400c17 	ldw	r21,48(r20)
    28d4:	a4800315 	stw	r18,12(r20)
    28d8:	157f8726 	beq	r2,r21,26f8 <f_open+0x124>
    28dc:	a0800103 	ldbu	r2,4(r20)
    28e0:	10000e1e 	bne	r2,zero,291c <f_open+0x348>
    28e4:	d8800b17 	ldw	r2,44(sp)
    28e8:	1000021e 	bne	r2,zero,28f4 <f_open+0x320>
    28ec:	dd000017 	ldw	r20,0(sp)
    28f0:	003f8106 	br	26f8 <f_open+0x124>
    28f4:	a1000043 	ldbu	r4,1(r20)
    28f8:	100d883a 	mov	r6,r2
    28fc:	a1400d04 	addi	r5,r20,52
    2900:	01c00044 	movi	r7,1
    2904:	0006da00 	call	6da0 <ffs_DiskIORead>
    2908:	103fec1e 	bne	r2,zero,28bc <f_open+0x2e8>
    290c:	d8800b17 	ldw	r2,44(sp)
    2910:	a0800c15 	stw	r2,48(r20)
    2914:	dd000017 	ldw	r20,0(sp)
    2918:	003f7706 	br	26f8 <f_open+0x124>
    291c:	a1000043 	ldbu	r4,1(r20)
    2920:	a5c00d04 	addi	r23,r20,52
    2924:	07000044 	movi	fp,1
    2928:	b80b883a 	mov	r5,r23
    292c:	a80d883a 	mov	r6,r21
    2930:	e00f883a 	mov	r7,fp
    2934:	0006fbc0 	call	6fbc <ffs_DiskIOWrite>
    2938:	103fe01e 	bne	r2,zero,28bc <f_open+0x2e8>
    293c:	a0800817 	ldw	r2,32(r20)
    2940:	a0c00917 	ldw	r3,36(r20)
    2944:	a0000105 	stb	zero,4(r20)
    2948:	10c7883a 	add	r3,r2,r3
    294c:	a8ffe52e 	bgeu	r21,r3,28e4 <f_open+0x310>
    2950:	a48000c3 	ldbu	r18,3(r20)
    2954:	90c03fcc 	andi	r3,r18,255
    2958:	e0c00236 	bltu	fp,r3,2964 <f_open+0x390>
    295c:	003fe106 	br	28e4 <f_open+0x310>
    2960:	a0800817 	ldw	r2,32(r20)
    2964:	a1000043 	ldbu	r4,1(r20)
    2968:	a8ab883a 	add	r21,r21,r2
    296c:	b80b883a 	mov	r5,r23
    2970:	a80d883a 	mov	r6,r21
    2974:	01c00044 	movi	r7,1
    2978:	94bfffc4 	addi	r18,r18,-1
    297c:	0006fbc0 	call	6fbc <ffs_DiskIOWrite>
    2980:	90803fcc 	andi	r2,r18,255
    2984:	173ff61e 	bne	r2,fp,2960 <f_open+0x38c>
    2988:	003fd606 	br	28e4 <f_open+0x310>

0000298c <f_read>:
    298c:	defff204 	addi	sp,sp,-56
    2990:	20800017 	ldw	r2,0(r4)
    2994:	ddc00b15 	stw	r23,44(sp)
    2998:	dd000815 	stw	r20,32(sp)
    299c:	dfc00d15 	stw	ra,52(sp)
    29a0:	df000c15 	stw	fp,48(sp)
    29a4:	dd800a15 	stw	r22,40(sp)
    29a8:	dd400915 	stw	r21,36(sp)
    29ac:	dcc00715 	stw	r19,28(sp)
    29b0:	dc800615 	stw	r18,24(sp)
    29b4:	dc400515 	stw	r17,20(sp)
    29b8:	dc000415 	stw	r16,16(sp)
    29bc:	38000015 	stw	zero,0(r7)
    29c0:	2029883a 	mov	r20,r4
    29c4:	382f883a 	mov	r23,r7
    29c8:	2100010b 	ldhu	r4,4(r4)
    29cc:	10000226 	beq	r2,zero,29d8 <f_read+0x4c>
    29d0:	10c00003 	ldbu	r3,0(r2)
    29d4:	18000d1e 	bne	r3,zero,2a0c <f_read+0x80>
    29d8:	00800244 	movi	r2,9
    29dc:	dfc00d17 	ldw	ra,52(sp)
    29e0:	df000c17 	ldw	fp,48(sp)
    29e4:	ddc00b17 	ldw	r23,44(sp)
    29e8:	dd800a17 	ldw	r22,40(sp)
    29ec:	dd400917 	ldw	r21,36(sp)
    29f0:	dd000817 	ldw	r20,32(sp)
    29f4:	dcc00717 	ldw	r19,28(sp)
    29f8:	dc800617 	ldw	r18,24(sp)
    29fc:	dc400517 	ldw	r17,20(sp)
    2a00:	dc000417 	ldw	r16,16(sp)
    2a04:	dec00e04 	addi	sp,sp,56
    2a08:	f800283a 	ret
    2a0c:	10c0018b 	ldhu	r3,6(r2)
    2a10:	213fffcc 	andi	r4,r4,65535
    2a14:	20fff01e 	bne	r4,r3,29d8 <f_read+0x4c>
    2a18:	11000043 	ldbu	r4,1(r2)
    2a1c:	d9400215 	stw	r5,8(sp)
    2a20:	d9800315 	stw	r6,12(sp)
    2a24:	0006d980 	call	6d98 <ffs_DiskIOStatus>
    2a28:	1080004c 	andi	r2,r2,1
    2a2c:	d9400217 	ldw	r5,8(sp)
    2a30:	d9800317 	ldw	r6,12(sp)
    2a34:	10000226 	beq	r2,zero,2a40 <f_read+0xb4>
    2a38:	008000c4 	movi	r2,3
    2a3c:	003fe706 	br	29dc <f_read+0x50>
    2a40:	a0800183 	ldbu	r2,6(r20)
    2a44:	10c03fcc 	andi	r3,r2,255
    2a48:	18c0201c 	xori	r3,r3,128
    2a4c:	18ffe004 	addi	r3,r3,-128
    2a50:	1800d016 	blt	r3,zero,2d94 <f_read+0x408>
    2a54:	1080004c 	andi	r2,r2,1
    2a58:	1000021e 	bne	r2,zero,2a64 <f_read+0xd8>
    2a5c:	008001c4 	movi	r2,7
    2a60:	003fde06 	br	29dc <f_read+0x50>
    2a64:	a0c00217 	ldw	r3,8(r20)
    2a68:	a0800317 	ldw	r2,12(r20)
    2a6c:	302d883a 	mov	r22,r6
    2a70:	10c5c83a 	sub	r2,r2,r3
    2a74:	1180012e 	bgeu	r2,r6,2a7c <f_read+0xf0>
    2a78:	102d883a 	mov	r22,r2
    2a7c:	b000c326 	beq	r22,zero,2d8c <f_read+0x400>
    2a80:	282b883a 	mov	r21,r5
    2a84:	a0800904 	addi	r2,r20,36
    2a88:	a1400a04 	addi	r5,r20,40
    2a8c:	04008004 	movi	r16,512
    2a90:	d8800015 	stw	r2,0(sp)
    2a94:	d9400115 	stw	r5,4(sp)
    2a98:	a7008904 	addi	fp,r20,548
    2a9c:	19807fcc 	andi	r6,r3,511
    2aa0:	30002b1e 	bne	r6,zero,2b50 <f_read+0x1c4>
    2aa4:	a1000017 	ldw	r4,0(r20)
    2aa8:	1810d27a 	srli	r8,r3,9
    2aac:	20800083 	ldbu	r2,2(r4)
    2ab0:	10bfffc4 	addi	r2,r2,-1
    2ab4:	4090703a 	and	r8,r8,r2
    2ab8:	44403fcc 	andi	r17,r8,255
    2abc:	88005b26 	beq	r17,zero,2c2c <f_read+0x2a0>
    2ac0:	a0800517 	ldw	r2,20(r20)
    2ac4:	20c00717 	ldw	r3,28(r4)
    2ac8:	10bfff84 	addi	r2,r2,-2
    2acc:	18ffff84 	addi	r3,r3,-2
    2ad0:	10c06236 	bltu	r2,r3,2c5c <f_read+0x2d0>
    2ad4:	a1000183 	ldbu	r4,6(r20)
    2ad8:	00ffe004 	movi	r3,-128
    2adc:	00800084 	movi	r2,2
    2ae0:	20c6b03a 	or	r3,r4,r3
    2ae4:	a0c00185 	stb	r3,6(r20)
    2ae8:	003fbc06 	br	29dc <f_read+0x50>
    2aec:	a1800617 	ldw	r6,24(r20)
    2af0:	34c01426 	beq	r6,r19,2b44 <f_read+0x1b8>
    2af4:	a0800183 	ldbu	r2,6(r20)
    2af8:	1080100c 	andi	r2,r2,64
    2afc:	10803fcc 	andi	r2,r2,255
    2b00:	10000a26 	beq	r2,zero,2b2c <f_read+0x1a0>
    2b04:	21000043 	ldbu	r4,1(r4)
    2b08:	d9400017 	ldw	r5,0(sp)
    2b0c:	01c00044 	movi	r7,1
    2b10:	0006fbc0 	call	6fbc <ffs_DiskIOWrite>
    2b14:	1000901e 	bne	r2,zero,2d58 <f_read+0x3cc>
    2b18:	a0800183 	ldbu	r2,6(r20)
    2b1c:	00ffefc4 	movi	r3,-65
    2b20:	a1000017 	ldw	r4,0(r20)
    2b24:	10c4703a 	and	r2,r2,r3
    2b28:	a0800185 	stb	r2,6(r20)
    2b2c:	21000043 	ldbu	r4,1(r4)
    2b30:	d9400017 	ldw	r5,0(sp)
    2b34:	980d883a 	mov	r6,r19
    2b38:	01c00044 	movi	r7,1
    2b3c:	0006da00 	call	6da0 <ffs_DiskIORead>
    2b40:	1000851e 	bne	r2,zero,2d58 <f_read+0x3cc>
    2b44:	a0c00217 	ldw	r3,8(r20)
    2b48:	a4c00615 	stw	r19,24(r20)
    2b4c:	19807fcc 	andi	r6,r3,511
    2b50:	818bc83a 	sub	r5,r16,r6
    2b54:	b140012e 	bgeu	r22,r5,2b5c <f_read+0x1d0>
    2b58:	b00b883a 	mov	r5,r22
    2b5c:	30800904 	addi	r2,r6,36
    2b60:	a085883a 	add	r2,r20,r2
    2b64:	29ffffc4 	addi	r7,r5,-1
    2b68:	28002626 	beq	r5,zero,2c04 <f_read+0x278>
    2b6c:	a18d883a 	add	r6,r20,r6
    2b70:	32400904 	addi	r9,r6,36
    2b74:	a8c00104 	addi	r3,r21,4
    2b78:	31800a04 	addi	r6,r6,40
    2b7c:	48c7403a 	cmpgeu	r3,r9,r3
    2b80:	2808d0ba 	srli	r4,r5,2
    2b84:	a98d403a 	cmpgeu	r6,r21,r6
    2b88:	4d50b03a 	or	r8,r9,r21
    2b8c:	30ccb03a 	or	r6,r6,r3
    2b90:	420000cc 	andi	r8,r8,3
    2b94:	28c00128 	cmpgeui	r3,r5,4
    2b98:	30c6703a 	and	r3,r6,r3
    2b9c:	4011003a 	cmpeq	r8,r8,zero
    2ba0:	210d883a 	add	r6,r4,r4
    2ba4:	1a06703a 	and	r3,r3,r8
    2ba8:	318d883a 	add	r6,r6,r6
    2bac:	18007b26 	beq	r3,zero,2d9c <f_read+0x410>
    2bb0:	30007a26 	beq	r6,zero,2d9c <f_read+0x410>
    2bb4:	a811883a 	mov	r8,r21
    2bb8:	0007883a 	mov	r3,zero
    2bbc:	4a800017 	ldw	r10,0(r9)
    2bc0:	18c00044 	addi	r3,r3,1
    2bc4:	4a400104 	addi	r9,r9,4
    2bc8:	42800015 	stw	r10,0(r8)
    2bcc:	42000104 	addi	r8,r8,4
    2bd0:	193ffa36 	bltu	r3,r4,2bbc <f_read+0x230>
    2bd4:	1185883a 	add	r2,r2,r6
    2bd8:	a987883a 	add	r3,r21,r6
    2bdc:	398fc83a 	sub	r7,r7,r6
    2be0:	29800726 	beq	r5,r6,2c00 <f_read+0x274>
    2be4:	39000044 	addi	r4,r7,1
    2be8:	1109883a 	add	r4,r2,r4
    2bec:	12000003 	ldbu	r8,0(r2)
    2bf0:	18c00044 	addi	r3,r3,1
    2bf4:	10800044 	addi	r2,r2,1
    2bf8:	1a3fffc5 	stb	r8,-1(r3)
    2bfc:	113ffb1e 	bne	r2,r4,2bec <f_read+0x260>
    2c00:	a0c00217 	ldw	r3,8(r20)
    2c04:	1947883a 	add	r3,r3,r5
    2c08:	a0c00215 	stw	r3,8(r20)
    2c0c:	b8800017 	ldw	r2,0(r23)
    2c10:	b16dc83a 	sub	r22,r22,r5
    2c14:	a96b883a 	add	r21,r21,r5
    2c18:	114b883a 	add	r5,r2,r5
    2c1c:	b9400015 	stw	r5,0(r23)
    2c20:	b0005a26 	beq	r22,zero,2d8c <f_read+0x400>
    2c24:	a0c00217 	ldw	r3,8(r20)
    2c28:	003f9c06 	br	2a9c <f_read+0x110>
    2c2c:	1800501e 	bne	r3,zero,2d70 <f_read+0x3e4>
    2c30:	a0800417 	ldw	r2,16(r20)
    2c34:	00c00044 	movi	r3,1
    2c38:	18bfa62e 	bgeu	r3,r2,2ad4 <f_read+0x148>
    2c3c:	013fffc4 	movi	r4,-1
    2c40:	11004526 	beq	r2,r4,2d58 <f_read+0x3cc>
    2c44:	a1000017 	ldw	r4,0(r20)
    2c48:	a0800515 	stw	r2,20(r20)
    2c4c:	10bfff84 	addi	r2,r2,-2
    2c50:	20c00717 	ldw	r3,28(r4)
    2c54:	18ffff84 	addi	r3,r3,-2
    2c58:	10ff9e2e 	bgeu	r2,r3,2ad4 <f_read+0x148>
    2c5c:	20c00083 	ldbu	r3,2(r4)
    2c60:	23000b17 	ldw	r12,44(r4)
    2c64:	10d7383a 	mul	r11,r2,r3
    2c68:	5b15883a 	add	r10,r11,r12
    2c6c:	503f9926 	beq	r10,zero,2ad4 <f_read+0x148>
    2c70:	b024d27a 	srli	r18,r22,9
    2c74:	5467883a 	add	r19,r10,r17
    2c78:	903f9c26 	beq	r18,zero,2aec <f_read+0x160>
    2c7c:	8c85883a 	add	r2,r17,r18
    2c80:	1880012e 	bgeu	r3,r2,2c88 <f_read+0x2fc>
    2c84:	1c65c83a 	sub	r18,r3,r17
    2c88:	21000043 	ldbu	r4,1(r4)
    2c8c:	a80b883a 	mov	r5,r21
    2c90:	980d883a 	mov	r6,r19
    2c94:	91c03fcc 	andi	r7,r18,255
    2c98:	dac00215 	stw	r11,8(sp)
    2c9c:	db000315 	stw	r12,12(sp)
    2ca0:	0006da00 	call	6da0 <ffs_DiskIORead>
    2ca4:	dac00217 	ldw	r11,8(sp)
    2ca8:	db000317 	ldw	r12,12(sp)
    2cac:	10002a1e 	bne	r2,zero,2d58 <f_read+0x3cc>
    2cb0:	a0800183 	ldbu	r2,6(r20)
    2cb4:	1080100c 	andi	r2,r2,64
    2cb8:	10803fcc 	andi	r2,r2,255
    2cbc:	10001826 	beq	r2,zero,2d20 <f_read+0x394>
    2cc0:	a0800617 	ldw	r2,24(r20)
    2cc4:	14d5c83a 	sub	r10,r2,r19
    2cc8:	5480152e 	bgeu	r10,r18,2d20 <f_read+0x394>
    2ccc:	1305c83a 	sub	r2,r2,r12
    2cd0:	1447c83a 	sub	r3,r2,r17
    2cd4:	1ac7c83a 	sub	r3,r3,r11
    2cd8:	1806927a 	slli	r3,r3,9
    2cdc:	d8800017 	ldw	r2,0(sp)
    2ce0:	d9c00117 	ldw	r7,4(sp)
    2ce4:	a8c7883a 	add	r3,r21,r3
    2ce8:	5008927a 	slli	r4,r10,9
    2cec:	19800104 	addi	r6,r3,4
    2cf0:	118d403a 	cmpgeu	r6,r2,r6
    2cf4:	19cb403a 	cmpgeu	r5,r3,r7
    2cf8:	314ab03a 	or	r5,r6,r5
    2cfc:	a909883a 	add	r4,r21,r4
    2d00:	28000a26 	beq	r5,zero,2d2c <f_read+0x3a0>
    2d04:	194000cc 	andi	r5,r3,3
    2d08:	2800081e 	bne	r5,zero,2d2c <f_read+0x3a0>
    2d0c:	11000017 	ldw	r4,0(r2)
    2d10:	18c00104 	addi	r3,r3,4
    2d14:	10800104 	addi	r2,r2,4
    2d18:	193fff15 	stw	r4,-4(r3)
    2d1c:	173ffb1e 	bne	r2,fp,2d0c <f_read+0x380>
    2d20:	900a927a 	slli	r5,r18,9
    2d24:	a0c00217 	ldw	r3,8(r20)
    2d28:	003fb606 	br	2c04 <f_read+0x278>
    2d2c:	10c00003 	ldbu	r3,0(r2)
    2d30:	21000044 	addi	r4,r4,1
    2d34:	10800044 	addi	r2,r2,1
    2d38:	20ffffc5 	stb	r3,-1(r4)
    2d3c:	173ff826 	beq	r2,fp,2d20 <f_read+0x394>
    2d40:	10c00003 	ldbu	r3,0(r2)
    2d44:	21000044 	addi	r4,r4,1
    2d48:	10800044 	addi	r2,r2,1
    2d4c:	20ffffc5 	stb	r3,-1(r4)
    2d50:	173ff61e 	bne	r2,fp,2d2c <f_read+0x3a0>
    2d54:	003ff206 	br	2d20 <f_read+0x394>
    2d58:	a1000183 	ldbu	r4,6(r20)
    2d5c:	00ffe004 	movi	r3,-128
    2d60:	00800044 	movi	r2,1
    2d64:	20c6b03a 	or	r3,r4,r3
    2d68:	a0c00185 	stb	r3,6(r20)
    2d6c:	003f1b06 	br	29dc <f_read+0x50>
    2d70:	a1400517 	ldw	r5,20(r20)
    2d74:	00800044 	movi	r2,1
    2d78:	117fae2e 	bgeu	r2,r5,2c34 <f_read+0x2a8>
    2d7c:	20c00717 	ldw	r3,28(r4)
    2d80:	28ffac2e 	bgeu	r5,r3,2c34 <f_read+0x2a8>
    2d84:	00012280 	call	1228 <get_fat.part.2>
    2d88:	003faa06 	br	2c34 <f_read+0x2a8>
    2d8c:	0005883a 	mov	r2,zero
    2d90:	003f1206 	br	29dc <f_read+0x50>
    2d94:	00800084 	movi	r2,2
    2d98:	003f1006 	br	29dc <f_read+0x50>
    2d9c:	a807883a 	mov	r3,r21
    2da0:	003f9006 	br	2be4 <f_read+0x258>

00002da4 <f_write>:
    2da4:	defff304 	addi	sp,sp,-52
    2da8:	20800017 	ldw	r2,0(r4)
    2dac:	df000b15 	stw	fp,44(sp)
    2db0:	dd800915 	stw	r22,36(sp)
    2db4:	dd400815 	stw	r21,32(sp)
    2db8:	dfc00c15 	stw	ra,48(sp)
    2dbc:	ddc00a15 	stw	r23,40(sp)
    2dc0:	dd000715 	stw	r20,28(sp)
    2dc4:	dcc00615 	stw	r19,24(sp)
    2dc8:	dc800515 	stw	r18,20(sp)
    2dcc:	dc400415 	stw	r17,16(sp)
    2dd0:	dc000315 	stw	r16,12(sp)
    2dd4:	38000015 	stw	zero,0(r7)
    2dd8:	202b883a 	mov	r21,r4
    2ddc:	3839883a 	mov	fp,r7
    2de0:	302d883a 	mov	r22,r6
    2de4:	2100010b 	ldhu	r4,4(r4)
    2de8:	10000226 	beq	r2,zero,2df4 <f_write+0x50>
    2dec:	10c00003 	ldbu	r3,0(r2)
    2df0:	18000d1e 	bne	r3,zero,2e28 <f_write+0x84>
    2df4:	00800244 	movi	r2,9
    2df8:	dfc00c17 	ldw	ra,48(sp)
    2dfc:	df000b17 	ldw	fp,44(sp)
    2e00:	ddc00a17 	ldw	r23,40(sp)
    2e04:	dd800917 	ldw	r22,36(sp)
    2e08:	dd400817 	ldw	r21,32(sp)
    2e0c:	dd000717 	ldw	r20,28(sp)
    2e10:	dcc00617 	ldw	r19,24(sp)
    2e14:	dc800517 	ldw	r18,20(sp)
    2e18:	dc400417 	ldw	r17,16(sp)
    2e1c:	dc000317 	ldw	r16,12(sp)
    2e20:	dec00d04 	addi	sp,sp,52
    2e24:	f800283a 	ret
    2e28:	10c0018b 	ldhu	r3,6(r2)
    2e2c:	213fffcc 	andi	r4,r4,65535
    2e30:	20fff01e 	bne	r4,r3,2df4 <f_write+0x50>
    2e34:	11000043 	ldbu	r4,1(r2)
    2e38:	d9400115 	stw	r5,4(sp)
    2e3c:	0006d980 	call	6d98 <ffs_DiskIOStatus>
    2e40:	1080004c 	andi	r2,r2,1
    2e44:	d9400117 	ldw	r5,4(sp)
    2e48:	10000226 	beq	r2,zero,2e54 <f_write+0xb0>
    2e4c:	008000c4 	movi	r2,3
    2e50:	003fe906 	br	2df8 <f_write+0x54>
    2e54:	a8c00183 	ldbu	r3,6(r21)
    2e58:	18803fcc 	andi	r2,r3,255
    2e5c:	1080201c 	xori	r2,r2,128
    2e60:	10bfe004 	addi	r2,r2,-128
    2e64:	1000e516 	blt	r2,zero,31fc <f_write+0x458>
    2e68:	1880008c 	andi	r2,r3,2
    2e6c:	10803fcc 	andi	r2,r2,255
    2e70:	1000021e 	bne	r2,zero,2e7c <f_write+0xd8>
    2e74:	008001c4 	movi	r2,7
    2e78:	003fdf06 	br	2df8 <f_write+0x54>
    2e7c:	a8800317 	ldw	r2,12(r21)
    2e80:	b089883a 	add	r4,r22,r2
    2e84:	2080072e 	bgeu	r4,r2,2ea4 <f_write+0x100>
    2e88:	a9000217 	ldw	r4,8(r21)
    2e8c:	1100012e 	bgeu	r2,r4,2e94 <f_write+0xf0>
    2e90:	a9000315 	stw	r4,12(r21)
    2e94:	18c00814 	ori	r3,r3,32
    2e98:	a8c00185 	stb	r3,6(r21)
    2e9c:	0005883a 	mov	r2,zero
    2ea0:	003fd506 	br	2df8 <f_write+0x54>
    2ea4:	b03ff826 	beq	r22,zero,2e88 <f_write+0xe4>
    2ea8:	a8c00a04 	addi	r3,r21,40
    2eac:	282f883a 	mov	r23,r5
    2eb0:	04008004 	movi	r16,512
    2eb4:	ac400904 	addi	r17,r21,36
    2eb8:	d8c00015 	stw	r3,0(sp)
    2ebc:	a8800217 	ldw	r2,8(r21)
    2ec0:	11807fcc 	andi	r6,r2,511
    2ec4:	3000251e 	bne	r6,zero,2f5c <f_write+0x1b8>
    2ec8:	a9000017 	ldw	r4,0(r21)
    2ecc:	1006d27a 	srli	r3,r2,9
    2ed0:	21400083 	ldbu	r5,2(r4)
    2ed4:	297fffc4 	addi	r5,r5,-1
    2ed8:	1946703a 	and	r3,r3,r5
    2edc:	1c803fcc 	andi	r18,r3,255
    2ee0:	9000091e 	bne	r18,zero,2f08 <f_write+0x164>
    2ee4:	1000a91e 	bne	r2,zero,318c <f_write+0x3e8>
    2ee8:	a8800417 	ldw	r2,16(r21)
    2eec:	1000ab26 	beq	r2,zero,319c <f_write+0x3f8>
    2ef0:	01000044 	movi	r4,1
    2ef4:	1100bb26 	beq	r2,r4,31e4 <f_write+0x440>
    2ef8:	01ffffc4 	movi	r7,-1
    2efc:	11c0b326 	beq	r2,r7,31cc <f_write+0x428>
    2f00:	a9000017 	ldw	r4,0(r21)
    2f04:	a8800515 	stw	r2,20(r21)
    2f08:	a8800183 	ldbu	r2,6(r21)
    2f0c:	1140100c 	andi	r5,r2,64
    2f10:	29403fcc 	andi	r5,r5,255
    2f14:	2800821e 	bne	r5,zero,3120 <f_write+0x37c>
    2f18:	a9400517 	ldw	r5,20(r21)
    2f1c:	21800717 	ldw	r6,28(r4)
    2f20:	297fff84 	addi	r5,r5,-2
    2f24:	31bfff84 	addi	r6,r6,-2
    2f28:	29804736 	bltu	r5,r6,3048 <f_write+0x2a4>
    2f2c:	00ffe004 	movi	r3,-128
    2f30:	10c4b03a 	or	r2,r2,r3
    2f34:	a8800185 	stb	r2,6(r21)
    2f38:	00800084 	movi	r2,2
    2f3c:	003fae06 	br	2df8 <f_write+0x54>
    2f40:	a8800617 	ldw	r2,24(r21)
    2f44:	15008926 	beq	r2,r20,316c <f_write+0x3c8>
    2f48:	a8800217 	ldw	r2,8(r21)
    2f4c:	a8c00317 	ldw	r3,12(r21)
    2f50:	10c08036 	bltu	r2,r3,3154 <f_write+0x3b0>
    2f54:	ad000615 	stw	r20,24(r21)
    2f58:	11807fcc 	andi	r6,r2,511
    2f5c:	818bc83a 	sub	r5,r16,r6
    2f60:	b140012e 	bgeu	r22,r5,2f68 <f_write+0x1c4>
    2f64:	b00b883a 	mov	r5,r22
    2f68:	30c00904 	addi	r3,r6,36
    2f6c:	a8c7883a 	add	r3,r21,r3
    2f70:	29ffffc4 	addi	r7,r5,-1
    2f74:	28002626 	beq	r5,zero,3010 <f_write+0x26c>
    2f78:	a98d883a 	add	r6,r21,r6
    2f7c:	32000904 	addi	r8,r6,36
    2f80:	b8800104 	addi	r2,r23,4
    2f84:	31800a04 	addi	r6,r6,40
    2f88:	4085403a 	cmpgeu	r2,r8,r2
    2f8c:	2808d0ba 	srli	r4,r5,2
    2f90:	b98d403a 	cmpgeu	r6,r23,r6
    2f94:	45d2b03a 	or	r9,r8,r23
    2f98:	308cb03a 	or	r6,r6,r2
    2f9c:	4a4000cc 	andi	r9,r9,3
    2fa0:	28800128 	cmpgeui	r2,r5,4
    2fa4:	3084703a 	and	r2,r6,r2
    2fa8:	4813003a 	cmpeq	r9,r9,zero
    2fac:	210d883a 	add	r6,r4,r4
    2fb0:	1244703a 	and	r2,r2,r9
    2fb4:	318d883a 	add	r6,r6,r6
    2fb8:	10009226 	beq	r2,zero,3204 <f_write+0x460>
    2fbc:	30009126 	beq	r6,zero,3204 <f_write+0x460>
    2fc0:	b813883a 	mov	r9,r23
    2fc4:	0005883a 	mov	r2,zero
    2fc8:	4a800017 	ldw	r10,0(r9)
    2fcc:	10800044 	addi	r2,r2,1
    2fd0:	4a400104 	addi	r9,r9,4
    2fd4:	42800015 	stw	r10,0(r8)
    2fd8:	42000104 	addi	r8,r8,4
    2fdc:	113ffa36 	bltu	r2,r4,2fc8 <f_write+0x224>
    2fe0:	b985883a 	add	r2,r23,r6
    2fe4:	1987883a 	add	r3,r3,r6
    2fe8:	398fc83a 	sub	r7,r7,r6
    2fec:	29800726 	beq	r5,r6,300c <f_write+0x268>
    2ff0:	39000044 	addi	r4,r7,1
    2ff4:	1109883a 	add	r4,r2,r4
    2ff8:	12000003 	ldbu	r8,0(r2)
    2ffc:	18c00044 	addi	r3,r3,1
    3000:	10800044 	addi	r2,r2,1
    3004:	1a3fffc5 	stb	r8,-1(r3)
    3008:	113ffb1e 	bne	r2,r4,2ff8 <f_write+0x254>
    300c:	a8800217 	ldw	r2,8(r21)
    3010:	a8c00183 	ldbu	r3,6(r21)
    3014:	18c01014 	ori	r3,r3,64
    3018:	a8c00185 	stb	r3,6(r21)
    301c:	1145883a 	add	r2,r2,r5
    3020:	a8800215 	stw	r2,8(r21)
    3024:	e0800017 	ldw	r2,0(fp)
    3028:	b16dc83a 	sub	r22,r22,r5
    302c:	b96f883a 	add	r23,r23,r5
    3030:	114b883a 	add	r5,r2,r5
    3034:	e1400015 	stw	r5,0(fp)
    3038:	b03fa01e 	bne	r22,zero,2ebc <f_write+0x118>
    303c:	a8800317 	ldw	r2,12(r21)
    3040:	a8c00183 	ldbu	r3,6(r21)
    3044:	003f9006 	br	2e88 <f_write+0xe4>
    3048:	21800083 	ldbu	r6,2(r4)
    304c:	22800b17 	ldw	r10,44(r4)
    3050:	3157383a 	mul	r11,r6,r5
    3054:	5a93883a 	add	r9,r11,r10
    3058:	483fb426 	beq	r9,zero,2f2c <f_write+0x188>
    305c:	b026d27a 	srli	r19,r22,9
    3060:	9269883a 	add	r20,r18,r9
    3064:	983fb626 	beq	r19,zero,2f40 <f_write+0x19c>
    3068:	9c85883a 	add	r2,r19,r18
    306c:	3080012e 	bgeu	r6,r2,3074 <f_write+0x2d0>
    3070:	34a7c83a 	sub	r19,r6,r18
    3074:	21000043 	ldbu	r4,1(r4)
    3078:	b80b883a 	mov	r5,r23
    307c:	a00d883a 	mov	r6,r20
    3080:	99c03fcc 	andi	r7,r19,255
    3084:	da800215 	stw	r10,8(sp)
    3088:	dac00115 	stw	r11,4(sp)
    308c:	0006fbc0 	call	6fbc <ffs_DiskIOWrite>
    3090:	da800217 	ldw	r10,8(sp)
    3094:	dac00117 	ldw	r11,4(sp)
    3098:	1000361e 	bne	r2,zero,3174 <f_write+0x3d0>
    309c:	a8800617 	ldw	r2,24(r21)
    30a0:	1513c83a 	sub	r9,r2,r20
    30a4:	4cc01b2e 	bgeu	r9,r19,3114 <f_write+0x370>
    30a8:	1285c83a 	sub	r2,r2,r10
    30ac:	12c5c83a 	sub	r2,r2,r11
    30b0:	1485c83a 	sub	r2,r2,r18
    30b4:	1004927a 	slli	r2,r2,9
    30b8:	d9c00017 	ldw	r7,0(sp)
    30bc:	4806927a 	slli	r3,r9,9
    30c0:	b885883a 	add	r2,r23,r2
    30c4:	11800104 	addi	r6,r2,4
    30c8:	898d403a 	cmpgeu	r6,r17,r6
    30cc:	11cb403a 	cmpgeu	r5,r2,r7
    30d0:	314ab03a 	or	r5,r6,r5
    30d4:	8809883a 	mov	r4,r17
    30d8:	b8c7883a 	add	r3,r23,r3
    30dc:	28003426 	beq	r5,zero,31b0 <f_write+0x40c>
    30e0:	114000cc 	andi	r5,r2,3
    30e4:	2800321e 	bne	r5,zero,31b0 <f_write+0x40c>
    30e8:	8807883a 	mov	r3,r17
    30ec:	11808004 	addi	r6,r2,512
    30f0:	11000017 	ldw	r4,0(r2)
    30f4:	18c00104 	addi	r3,r3,4
    30f8:	10800104 	addi	r2,r2,4
    30fc:	193fff15 	stw	r4,-4(r3)
    3100:	11bffb1e 	bne	r2,r6,30f0 <f_write+0x34c>
    3104:	a8800183 	ldbu	r2,6(r21)
    3108:	00ffefc4 	movi	r3,-65
    310c:	10c4703a 	and	r2,r2,r3
    3110:	a8800185 	stb	r2,6(r21)
    3114:	980a927a 	slli	r5,r19,9
    3118:	a8800217 	ldw	r2,8(r21)
    311c:	003fbf06 	br	301c <f_write+0x278>
    3120:	21000043 	ldbu	r4,1(r4)
    3124:	a9800617 	ldw	r6,24(r21)
    3128:	880b883a 	mov	r5,r17
    312c:	01c00044 	movi	r7,1
    3130:	0006fbc0 	call	6fbc <ffs_DiskIOWrite>
    3134:	10000f1e 	bne	r2,zero,3174 <f_write+0x3d0>
    3138:	a9400183 	ldbu	r5,6(r21)
    313c:	00bfefc4 	movi	r2,-65
    3140:	a9000017 	ldw	r4,0(r21)
    3144:	288a703a 	and	r5,r5,r2
    3148:	2805883a 	mov	r2,r5
    314c:	a9400185 	stb	r5,6(r21)
    3150:	003f7106 	br	2f18 <f_write+0x174>
    3154:	21000043 	ldbu	r4,1(r4)
    3158:	880b883a 	mov	r5,r17
    315c:	a00d883a 	mov	r6,r20
    3160:	01c00044 	movi	r7,1
    3164:	0006da00 	call	6da0 <ffs_DiskIORead>
    3168:	1000021e 	bne	r2,zero,3174 <f_write+0x3d0>
    316c:	a8800217 	ldw	r2,8(r21)
    3170:	003f7806 	br	2f54 <f_write+0x1b0>
    3174:	a9000183 	ldbu	r4,6(r21)
    3178:	00ffe004 	movi	r3,-128
    317c:	00800044 	movi	r2,1
    3180:	20c6b03a 	or	r3,r4,r3
    3184:	a8c00185 	stb	r3,6(r21)
    3188:	003f1b06 	br	2df8 <f_write+0x54>
    318c:	a9400517 	ldw	r5,20(r21)
    3190:	00017700 	call	1770 <create_chain>
    3194:	103f561e 	bne	r2,zero,2ef0 <f_write+0x14c>
    3198:	003fa806 	br	303c <f_write+0x298>
    319c:	000b883a 	mov	r5,zero
    31a0:	00017700 	call	1770 <create_chain>
    31a4:	a8800415 	stw	r2,16(r21)
    31a8:	103f511e 	bne	r2,zero,2ef0 <f_write+0x14c>
    31ac:	003fa306 	br	303c <f_write+0x298>
    31b0:	19408004 	addi	r5,r3,512
    31b4:	18800003 	ldbu	r2,0(r3)
    31b8:	21000044 	addi	r4,r4,1
    31bc:	18c00044 	addi	r3,r3,1
    31c0:	20bfffc5 	stb	r2,-1(r4)
    31c4:	197ffb1e 	bne	r3,r5,31b4 <f_write+0x410>
    31c8:	003fce06 	br	3104 <f_write+0x360>
    31cc:	a9400183 	ldbu	r5,6(r21)
    31d0:	00ffe004 	movi	r3,-128
    31d4:	2005883a 	mov	r2,r4
    31d8:	28c6b03a 	or	r3,r5,r3
    31dc:	a8c00185 	stb	r3,6(r21)
    31e0:	003f0506 	br	2df8 <f_write+0x54>
    31e4:	a9000183 	ldbu	r4,6(r21)
    31e8:	00ffe004 	movi	r3,-128
    31ec:	00800084 	movi	r2,2
    31f0:	20c6b03a 	or	r3,r4,r3
    31f4:	a8c00185 	stb	r3,6(r21)
    31f8:	003eff06 	br	2df8 <f_write+0x54>
    31fc:	00800084 	movi	r2,2
    3200:	003efd06 	br	2df8 <f_write+0x54>
    3204:	b805883a 	mov	r2,r23
    3208:	003f7906 	br	2ff0 <f_write+0x24c>

0000320c <f_sync>:
    320c:	20800017 	ldw	r2,0(r4)
    3210:	defff804 	addi	sp,sp,-32
    3214:	dc000015 	stw	r16,0(sp)
    3218:	dfc00715 	stw	ra,28(sp)
    321c:	dd800615 	stw	r22,24(sp)
    3220:	dd400515 	stw	r21,20(sp)
    3224:	dd000415 	stw	r20,16(sp)
    3228:	dcc00315 	stw	r19,12(sp)
    322c:	dc800215 	stw	r18,8(sp)
    3230:	dc400115 	stw	r17,4(sp)
    3234:	2021883a 	mov	r16,r4
    3238:	2100010b 	ldhu	r4,4(r4)
    323c:	10000226 	beq	r2,zero,3248 <f_sync+0x3c>
    3240:	10c00003 	ldbu	r3,0(r2)
    3244:	18000b1e 	bne	r3,zero,3274 <f_sync+0x68>
    3248:	00800244 	movi	r2,9
    324c:	dfc00717 	ldw	ra,28(sp)
    3250:	dd800617 	ldw	r22,24(sp)
    3254:	dd400517 	ldw	r21,20(sp)
    3258:	dd000417 	ldw	r20,16(sp)
    325c:	dcc00317 	ldw	r19,12(sp)
    3260:	dc800217 	ldw	r18,8(sp)
    3264:	dc400117 	ldw	r17,4(sp)
    3268:	dc000017 	ldw	r16,0(sp)
    326c:	dec00804 	addi	sp,sp,32
    3270:	f800283a 	ret
    3274:	10c0018b 	ldhu	r3,6(r2)
    3278:	213fffcc 	andi	r4,r4,65535
    327c:	20fff21e 	bne	r4,r3,3248 <f_sync+0x3c>
    3280:	11000043 	ldbu	r4,1(r2)
    3284:	0006d980 	call	6d98 <ffs_DiskIOStatus>
    3288:	1080004c 	andi	r2,r2,1
    328c:	10000226 	beq	r2,zero,3298 <f_sync+0x8c>
    3290:	008000c4 	movi	r2,3
    3294:	003fed06 	br	324c <f_sync+0x40>
    3298:	80800183 	ldbu	r2,6(r16)
    329c:	10c0080c 	andi	r3,r2,32
    32a0:	18c03fcc 	andi	r3,r3,255
    32a4:	1800021e 	bne	r3,zero,32b0 <f_sync+0xa4>
    32a8:	0005883a 	mov	r2,zero
    32ac:	003fe706 	br	324c <f_sync+0x40>
    32b0:	1080100c 	andi	r2,r2,64
    32b4:	10803fcc 	andi	r2,r2,255
    32b8:	10000a26 	beq	r2,zero,32e4 <f_sync+0xd8>
    32bc:	80800017 	ldw	r2,0(r16)
    32c0:	81800617 	ldw	r6,24(r16)
    32c4:	81400904 	addi	r5,r16,36
    32c8:	11000043 	ldbu	r4,1(r2)
    32cc:	01c00044 	movi	r7,1
    32d0:	0006fbc0 	call	6fbc <ffs_DiskIOWrite>
    32d4:	1000561e 	bne	r2,zero,3430 <f_sync+0x224>
    32d8:	80800183 	ldbu	r2,6(r16)
    32dc:	10802fcc 	andi	r2,r2,191
    32e0:	80800185 	stb	r2,6(r16)
    32e4:	84400017 	ldw	r17,0(r16)
    32e8:	84c00717 	ldw	r19,28(r16)
    32ec:	8c800c17 	ldw	r18,48(r17)
    32f0:	9c800326 	beq	r19,r18,3300 <f_sync+0xf4>
    32f4:	88800103 	ldbu	r2,4(r17)
    32f8:	1000311e 	bne	r2,zero,33c0 <f_sync+0x1b4>
    32fc:	98004e1e 	bne	r19,zero,3438 <f_sync+0x22c>
    3300:	84400817 	ldw	r17,32(r16)
    3304:	888002c3 	ldbu	r2,11(r17)
    3308:	10800814 	ori	r2,r2,32
    330c:	888002c5 	stb	r2,11(r17)
    3310:	80800317 	ldw	r2,12(r16)
    3314:	88800705 	stb	r2,28(r17)
    3318:	8080030b 	ldhu	r2,12(r16)
    331c:	1004d23a 	srli	r2,r2,8
    3320:	88800745 	stb	r2,29(r17)
    3324:	8080038b 	ldhu	r2,14(r16)
    3328:	88800785 	stb	r2,30(r17)
    332c:	808003c3 	ldbu	r2,15(r16)
    3330:	888007c5 	stb	r2,31(r17)
    3334:	80800417 	ldw	r2,16(r16)
    3338:	88800685 	stb	r2,26(r17)
    333c:	8080040b 	ldhu	r2,16(r16)
    3340:	1004d23a 	srli	r2,r2,8
    3344:	888006c5 	stb	r2,27(r17)
    3348:	8080048b 	ldhu	r2,18(r16)
    334c:	88800505 	stb	r2,20(r17)
    3350:	8080048b 	ldhu	r2,18(r16)
    3354:	1004d23a 	srli	r2,r2,8
    3358:	88800545 	stb	r2,21(r17)
    335c:	0007ab80 	call	7ab8 <get_fattime>
    3360:	100ad23a 	srli	r5,r2,8
    3364:	1008d43a 	srli	r4,r2,16
    3368:	1006d63a 	srli	r3,r2,24
    336c:	88800585 	stb	r2,22(r17)
    3370:	894005c5 	stb	r5,23(r17)
    3374:	89000605 	stb	r4,24(r17)
    3378:	88c00645 	stb	r3,25(r17)
    337c:	80c00183 	ldbu	r3,6(r16)
    3380:	80800017 	ldw	r2,0(r16)
    3384:	18c037cc 	andi	r3,r3,223
    3388:	80c00185 	stb	r3,6(r16)
    338c:	00c00044 	movi	r3,1
    3390:	10c00105 	stb	r3,4(r2)
    3394:	81000017 	ldw	r4,0(r16)
    3398:	dfc00717 	ldw	ra,28(sp)
    339c:	dd800617 	ldw	r22,24(sp)
    33a0:	dd400517 	ldw	r21,20(sp)
    33a4:	dd000417 	ldw	r20,16(sp)
    33a8:	dcc00317 	ldw	r19,12(sp)
    33ac:	dc800217 	ldw	r18,8(sp)
    33b0:	dc400117 	ldw	r17,4(sp)
    33b4:	dc000017 	ldw	r16,0(sp)
    33b8:	dec00804 	addi	sp,sp,32
    33bc:	00006201 	jmpi	620 <sync>
    33c0:	89000043 	ldbu	r4,1(r17)
    33c4:	8d400d04 	addi	r21,r17,52
    33c8:	05800044 	movi	r22,1
    33cc:	a80b883a 	mov	r5,r21
    33d0:	900d883a 	mov	r6,r18
    33d4:	b00f883a 	mov	r7,r22
    33d8:	0006fbc0 	call	6fbc <ffs_DiskIOWrite>
    33dc:	1000141e 	bne	r2,zero,3430 <f_sync+0x224>
    33e0:	88800817 	ldw	r2,32(r17)
    33e4:	88c00917 	ldw	r3,36(r17)
    33e8:	88000105 	stb	zero,4(r17)
    33ec:	10c7883a 	add	r3,r2,r3
    33f0:	90ffc22e 	bgeu	r18,r3,32fc <f_sync+0xf0>
    33f4:	8d0000c3 	ldbu	r20,3(r17)
    33f8:	a0c03fcc 	andi	r3,r20,255
    33fc:	b0c00236 	bltu	r22,r3,3408 <f_sync+0x1fc>
    3400:	003fbe06 	br	32fc <f_sync+0xf0>
    3404:	88800817 	ldw	r2,32(r17)
    3408:	89000043 	ldbu	r4,1(r17)
    340c:	90a5883a 	add	r18,r18,r2
    3410:	a80b883a 	mov	r5,r21
    3414:	900d883a 	mov	r6,r18
    3418:	01c00044 	movi	r7,1
    341c:	a53fffc4 	addi	r20,r20,-1
    3420:	0006fbc0 	call	6fbc <ffs_DiskIOWrite>
    3424:	a0803fcc 	andi	r2,r20,255
    3428:	15bff61e 	bne	r2,r22,3404 <f_sync+0x1f8>
    342c:	003fb306 	br	32fc <f_sync+0xf0>
    3430:	00800044 	movi	r2,1
    3434:	003f8506 	br	324c <f_sync+0x40>
    3438:	89000043 	ldbu	r4,1(r17)
    343c:	89400d04 	addi	r5,r17,52
    3440:	980d883a 	mov	r6,r19
    3444:	01c00044 	movi	r7,1
    3448:	0006da00 	call	6da0 <ffs_DiskIORead>
    344c:	103ff81e 	bne	r2,zero,3430 <f_sync+0x224>
    3450:	8cc00c15 	stw	r19,48(r17)
    3454:	003faa06 	br	3300 <f_sync+0xf4>

00003458 <f_close>:
    3458:	defffe04 	addi	sp,sp,-8
    345c:	dc000015 	stw	r16,0(sp)
    3460:	dfc00115 	stw	ra,4(sp)
    3464:	2021883a 	mov	r16,r4
    3468:	000320c0 	call	320c <f_sync>
    346c:	1000011e 	bne	r2,zero,3474 <f_close+0x1c>
    3470:	80000015 	stw	zero,0(r16)
    3474:	dfc00117 	ldw	ra,4(sp)
    3478:	dc000017 	ldw	r16,0(sp)
    347c:	dec00204 	addi	sp,sp,8
    3480:	f800283a 	ret

00003484 <f_chdrive>:
    3484:	21003fcc 	andi	r4,r4,255
    3488:	20000226 	beq	r4,zero,3494 <f_chdrive+0x10>
    348c:	008002c4 	movi	r2,11
    3490:	f800283a 	ret
    3494:	d0202f05 	stb	zero,-32580(gp)
    3498:	0005883a 	mov	r2,zero
    349c:	f800283a 	ret

000034a0 <f_chdir>:
    34a0:	defff404 	addi	sp,sp,-48
    34a4:	d9000a15 	stw	r4,40(sp)
    34a8:	d80b883a 	mov	r5,sp
    34ac:	d9000a04 	addi	r4,sp,40
    34b0:	000d883a 	mov	r6,zero
    34b4:	dfc00b15 	stw	ra,44(sp)
    34b8:	00007c40 	call	7c4 <chk_mounted>
    34bc:	10000326 	beq	r2,zero,34cc <f_chdir+0x2c>
    34c0:	dfc00b17 	ldw	ra,44(sp)
    34c4:	dec00c04 	addi	sp,sp,48
    34c8:	f800283a 	ret
    34cc:	d9400a17 	ldw	r5,40(sp)
    34d0:	d8800704 	addi	r2,sp,28
    34d4:	d809883a 	mov	r4,sp
    34d8:	d8800615 	stw	r2,24(sp)
    34dc:	0001f080 	call	1f08 <follow_path>
    34e0:	1000131e 	bne	r2,zero,3530 <f_chdir+0x90>
    34e4:	d8c00517 	ldw	r3,20(sp)
    34e8:	18001726 	beq	r3,zero,3548 <f_chdir+0xa8>
    34ec:	190002c3 	ldbu	r4,11(r3)
    34f0:	2100040c 	andi	r4,r4,16
    34f4:	21003fcc 	andi	r4,r4,255
    34f8:	20000f26 	beq	r4,zero,3538 <f_chdir+0x98>
    34fc:	19c00543 	ldbu	r7,21(r3)
    3500:	190006c3 	ldbu	r4,27(r3)
    3504:	19800503 	ldbu	r6,20(r3)
    3508:	380e923a 	slli	r7,r7,8
    350c:	19400683 	ldbu	r5,26(r3)
    3510:	2008923a 	slli	r4,r4,8
    3514:	3986b03a 	or	r3,r7,r6
    3518:	1806943a 	slli	r3,r3,16
    351c:	2148b03a 	or	r4,r4,r5
    3520:	1908b03a 	or	r4,r3,r4
    3524:	d8c00017 	ldw	r3,0(sp)
    3528:	19000615 	stw	r4,24(r3)
    352c:	003fe406 	br	34c0 <f_chdir+0x20>
    3530:	00c00104 	movi	r3,4
    3534:	10ffe21e 	bne	r2,r3,34c0 <f_chdir+0x20>
    3538:	00800144 	movi	r2,5
    353c:	dfc00b17 	ldw	ra,44(sp)
    3540:	dec00c04 	addi	sp,sp,48
    3544:	f800283a 	ret
    3548:	d9000217 	ldw	r4,8(sp)
    354c:	d8c00017 	ldw	r3,0(sp)
    3550:	19000615 	stw	r4,24(r3)
    3554:	003fda06 	br	34c0 <f_chdir+0x20>

00003558 <f_getcwd>:
    3558:	deffe304 	addi	sp,sp,-116
    355c:	d9001015 	stw	r4,64(sp)
    3560:	dfc01c15 	stw	ra,112(sp)
    3564:	df001b15 	stw	fp,108(sp)
    3568:	ddc01a15 	stw	r23,104(sp)
    356c:	dd801915 	stw	r22,100(sp)
    3570:	dd401815 	stw	r21,96(sp)
    3574:	dd001715 	stw	r20,92(sp)
    3578:	dcc01615 	stw	r19,88(sp)
    357c:	dc801515 	stw	r18,84(sp)
    3580:	dc401415 	stw	r17,80(sp)
    3584:	dc001315 	stw	r16,76(sp)
    3588:	20000005 	stb	zero,0(r4)
    358c:	d9401215 	stw	r5,72(sp)
    3590:	d9001004 	addi	r4,sp,64
    3594:	d80b883a 	mov	r5,sp
    3598:	000d883a 	mov	r6,zero
    359c:	00007c40 	call	7c4 <chk_mounted>
    35a0:	d8801115 	stw	r2,68(sp)
    35a4:	1000a91e 	bne	r2,zero,384c <f_getcwd+0x2f4>
    35a8:	d8800d04 	addi	r2,sp,52
    35ac:	d8800615 	stw	r2,24(sp)
    35b0:	d8800017 	ldw	r2,0(sp)
    35b4:	15400617 	ldw	r21,24(r2)
    35b8:	dd400215 	stw	r21,8(sp)
    35bc:	a800b626 	beq	r21,zero,3898 <f_getcwd+0x340>
    35c0:	dd001217 	ldw	r20,72(sp)
    35c4:	04803944 	movi	r18,229
    35c8:	d809883a 	mov	r4,sp
    35cc:	01400044 	movi	r5,1
    35d0:	000161c0 	call	161c <dir_sdi>
    35d4:	1000ae1e 	bne	r2,zero,3890 <f_getcwd+0x338>
    35d8:	d809883a 	mov	r4,sp
    35dc:	00023e40 	call	23e4 <dir_read>
    35e0:	1000ab1e 	bne	r2,zero,3890 <f_getcwd+0x338>
    35e4:	d8800517 	ldw	r2,20(sp)
    35e8:	d809883a 	mov	r4,sp
    35ec:	000b883a 	mov	r5,zero
    35f0:	10c00543 	ldbu	r3,21(r2)
    35f4:	11c00503 	ldbu	r7,20(r2)
    35f8:	120006c3 	ldbu	r8,27(r2)
    35fc:	1806923a 	slli	r3,r3,8
    3600:	11800683 	ldbu	r6,26(r2)
    3604:	4004923a 	slli	r2,r8,8
    3608:	19c6b03a 	or	r3,r3,r7
    360c:	1806943a 	slli	r3,r3,16
    3610:	1184b03a 	or	r2,r2,r6
    3614:	1884b03a 	or	r2,r3,r2
    3618:	d8800215 	stw	r2,8(sp)
    361c:	000161c0 	call	161c <dir_sdi>
    3620:	10009b1e 	bne	r2,zero,3890 <f_getcwd+0x338>
    3624:	00800104 	movi	r2,4
    3628:	04c00044 	movi	r19,1
    362c:	00000c06 	br	3660 <f_getcwd+0x108>
    3630:	87000c15 	stw	fp,48(r16)
    3634:	d8800517 	ldw	r2,20(sp)
    3638:	10c00003 	ldbu	r3,0(r2)
    363c:	18008f26 	beq	r3,zero,387c <f_getcwd+0x324>
    3640:	1c800426 	beq	r3,r18,3654 <f_getcwd+0xfc>
    3644:	10c002c3 	ldbu	r3,11(r2)
    3648:	18c0020c 	andi	r3,r3,8
    364c:	18c03fcc 	andi	r3,r3,255
    3650:	18006726 	beq	r3,zero,37f0 <f_getcwd+0x298>
    3654:	d809883a 	mov	r4,sp
    3658:	0001de40 	call	1de4 <dir_next.constprop.8>
    365c:	10000f1e 	bne	r2,zero,369c <f_getcwd+0x144>
    3660:	df000417 	ldw	fp,16(sp)
    3664:	e0006026 	beq	fp,zero,37e8 <f_getcwd+0x290>
    3668:	dc000017 	ldw	r16,0(sp)
    366c:	84400c17 	ldw	r17,48(r16)
    3670:	e47ff026 	beq	fp,r17,3634 <f_getcwd+0xdc>
    3674:	80800103 	ldbu	r2,4(r16)
    3678:	1000401e 	bne	r2,zero,377c <f_getcwd+0x224>
    367c:	85800d04 	addi	r22,r16,52
    3680:	81000043 	ldbu	r4,1(r16)
    3684:	b00b883a 	mov	r5,r22
    3688:	e00d883a 	mov	r6,fp
    368c:	01c00044 	movi	r7,1
    3690:	0006da00 	call	6da0 <ffs_DiskIORead>
    3694:	103fe626 	beq	r2,zero,3630 <f_getcwd+0xd8>
    3698:	00800044 	movi	r2,1
    369c:	d8000415 	stw	zero,16(sp)
    36a0:	00c00104 	movi	r3,4
    36a4:	10c06426 	beq	r2,r3,3838 <f_getcwd+0x2e0>
    36a8:	1000791e 	bne	r2,zero,3890 <f_getcwd+0x338>
    36ac:	d809883a 	mov	r4,sp
    36b0:	d9400704 	addi	r5,sp,28
    36b4:	00002980 	call	298 <get_fileinfo>
    36b8:	d8800947 	ldb	r2,37(sp)
    36bc:	10007126 	beq	r2,zero,3884 <f_getcwd+0x32c>
    36c0:	d8800984 	addi	r2,sp,38
    36c4:	0009883a 	mov	r4,zero
    36c8:	10800044 	addi	r2,r2,1
    36cc:	10ffffc7 	ldb	r3,-1(r2)
    36d0:	21000044 	addi	r4,r4,1
    36d4:	183ffc1e 	bne	r3,zero,36c8 <f_getcwd+0x170>
    36d8:	208000c4 	addi	r2,r4,3
    36dc:	a0806b36 	bltu	r20,r2,388c <f_getcwd+0x334>
    36e0:	20000c26 	beq	r4,zero,3714 <f_getcwd+0x1bc>
    36e4:	2005883a 	mov	r2,r4
    36e8:	a007883a 	mov	r3,r20
    36ec:	d9800944 	addi	r6,sp,37
    36f0:	10bfffc4 	addi	r2,r2,-1
    36f4:	308b883a 	add	r5,r6,r2
    36f8:	29800003 	ldbu	r6,0(r5)
    36fc:	d9401017 	ldw	r5,64(sp)
    3700:	18ffffc4 	addi	r3,r3,-1
    3704:	28cb883a 	add	r5,r5,r3
    3708:	29800005 	stb	r6,0(r5)
    370c:	103ff71e 	bne	r2,zero,36ec <f_getcwd+0x194>
    3710:	a129c83a 	sub	r20,r20,r4
    3714:	d8801017 	ldw	r2,64(sp)
    3718:	a53fffc4 	addi	r20,r20,-1
    371c:	00c00bc4 	movi	r3,47
    3720:	1505883a 	add	r2,r2,r20
    3724:	10c00005 	stb	r3,0(r2)
    3728:	dd400217 	ldw	r21,8(sp)
    372c:	a83fa61e 	bne	r21,zero,35c8 <f_getcwd+0x70>
    3730:	d0a02f03 	ldbu	r2,-32580(gp)
    3734:	d8c01017 	ldw	r3,64(sp)
    3738:	d9001217 	ldw	r4,72(sp)
    373c:	10800c04 	addi	r2,r2,48
    3740:	18800005 	stb	r2,0(r3)
    3744:	00800e84 	movi	r2,58
    3748:	18800045 	stb	r2,1(r3)
    374c:	18800084 	addi	r2,r3,2
    3750:	25005726 	beq	r4,r20,38b0 <f_getcwd+0x358>
    3754:	d8c01017 	ldw	r3,64(sp)
    3758:	d9801217 	ldw	r6,72(sp)
    375c:	10800044 	addi	r2,r2,1
    3760:	1d07883a 	add	r3,r3,r20
    3764:	18c00003 	ldbu	r3,0(r3)
    3768:	a5000044 	addi	r20,r20,1
    376c:	10ffffc5 	stb	r3,-1(r2)
    3770:	a1bff836 	bltu	r20,r6,3754 <f_getcwd+0x1fc>
    3774:	d8001115 	stw	zero,68(sp)
    3778:	00003206 	br	3844 <f_getcwd+0x2ec>
    377c:	81000043 	ldbu	r4,1(r16)
    3780:	85800d04 	addi	r22,r16,52
    3784:	b00b883a 	mov	r5,r22
    3788:	880d883a 	mov	r6,r17
    378c:	01c00044 	movi	r7,1
    3790:	0006fbc0 	call	6fbc <ffs_DiskIOWrite>
    3794:	103fc01e 	bne	r2,zero,3698 <f_getcwd+0x140>
    3798:	80800817 	ldw	r2,32(r16)
    379c:	81000917 	ldw	r4,36(r16)
    37a0:	80000105 	stb	zero,4(r16)
    37a4:	1109883a 	add	r4,r2,r4
    37a8:	893fb52e 	bgeu	r17,r4,3680 <f_getcwd+0x128>
    37ac:	85c000c3 	ldbu	r23,3(r16)
    37b0:	b9003fcc 	andi	r4,r23,255
    37b4:	99000236 	bltu	r19,r4,37c0 <f_getcwd+0x268>
    37b8:	003fb106 	br	3680 <f_getcwd+0x128>
    37bc:	80800817 	ldw	r2,32(r16)
    37c0:	81000043 	ldbu	r4,1(r16)
    37c4:	88a3883a 	add	r17,r17,r2
    37c8:	b00b883a 	mov	r5,r22
    37cc:	880d883a 	mov	r6,r17
    37d0:	01c00044 	movi	r7,1
    37d4:	bdffffc4 	addi	r23,r23,-1
    37d8:	0006fbc0 	call	6fbc <ffs_DiskIOWrite>
    37dc:	b8803fcc 	andi	r2,r23,255
    37e0:	14fff61e 	bne	r2,r19,37bc <f_getcwd+0x264>
    37e4:	003fa606 	br	3680 <f_getcwd+0x128>
    37e8:	103fac1e 	bne	r2,zero,369c <f_getcwd+0x144>
    37ec:	d8800517 	ldw	r2,20(sp)
    37f0:	10c00543 	ldbu	r3,21(r2)
    37f4:	11400503 	ldbu	r5,20(r2)
    37f8:	118006c3 	ldbu	r6,27(r2)
    37fc:	1806923a 	slli	r3,r3,8
    3800:	11000683 	ldbu	r4,26(r2)
    3804:	3004923a 	slli	r2,r6,8
    3808:	1946b03a 	or	r3,r3,r5
    380c:	1806943a 	slli	r3,r3,16
    3810:	1104b03a 	or	r2,r2,r4
    3814:	1884b03a 	or	r2,r3,r2
    3818:	157fa426 	beq	r2,r21,36ac <f_getcwd+0x154>
    381c:	d809883a 	mov	r4,sp
    3820:	0001de40 	call	1de4 <dir_next.constprop.8>
    3824:	1000021e 	bne	r2,zero,3830 <f_getcwd+0x2d8>
    3828:	00800104 	movi	r2,4
    382c:	003f8c06 	br	3660 <f_getcwd+0x108>
    3830:	00c00104 	movi	r3,4
    3834:	10c0161e 	bne	r2,r3,3890 <f_getcwd+0x338>
    3838:	00800084 	movi	r2,2
    383c:	d8801115 	stw	r2,68(sp)
    3840:	d8801017 	ldw	r2,64(sp)
    3844:	10000005 	stb	zero,0(r2)
    3848:	d8801117 	ldw	r2,68(sp)
    384c:	dfc01c17 	ldw	ra,112(sp)
    3850:	df001b17 	ldw	fp,108(sp)
    3854:	ddc01a17 	ldw	r23,104(sp)
    3858:	dd801917 	ldw	r22,100(sp)
    385c:	dd401817 	ldw	r21,96(sp)
    3860:	dd001717 	ldw	r20,92(sp)
    3864:	dcc01617 	ldw	r19,88(sp)
    3868:	dc801517 	ldw	r18,84(sp)
    386c:	dc401417 	ldw	r17,80(sp)
    3870:	dc001317 	ldw	r16,76(sp)
    3874:	dec01d04 	addi	sp,sp,116
    3878:	f800283a 	ret
    387c:	00800104 	movi	r2,4
    3880:	003f8606 	br	369c <f_getcwd+0x144>
    3884:	00800084 	movi	r2,2
    3888:	153fa236 	bltu	r2,r20,3714 <f_getcwd+0x1bc>
    388c:	00800444 	movi	r2,17
    3890:	d8801115 	stw	r2,68(sp)
    3894:	003fea06 	br	3840 <f_getcwd+0x2e8>
    3898:	d0a02f03 	ldbu	r2,-32580(gp)
    389c:	d8c01017 	ldw	r3,64(sp)
    38a0:	10800c04 	addi	r2,r2,48
    38a4:	18800005 	stb	r2,0(r3)
    38a8:	00800e84 	movi	r2,58
    38ac:	18800045 	stb	r2,1(r3)
    38b0:	00800bc4 	movi	r2,47
    38b4:	18800085 	stb	r2,2(r3)
    38b8:	188000c4 	addi	r2,r3,3
    38bc:	003fe106 	br	3844 <f_getcwd+0x2ec>

000038c0 <f_lseek>:
    38c0:	20800017 	ldw	r2,0(r4)
    38c4:	defffa04 	addi	sp,sp,-24
    38c8:	dc400115 	stw	r17,4(sp)
    38cc:	dc000015 	stw	r16,0(sp)
    38d0:	dfc00515 	stw	ra,20(sp)
    38d4:	dd000415 	stw	r20,16(sp)
    38d8:	dcc00315 	stw	r19,12(sp)
    38dc:	dc800215 	stw	r18,8(sp)
    38e0:	2021883a 	mov	r16,r4
    38e4:	2823883a 	mov	r17,r5
    38e8:	2100010b 	ldhu	r4,4(r4)
    38ec:	10000226 	beq	r2,zero,38f8 <f_lseek+0x38>
    38f0:	10c00003 	ldbu	r3,0(r2)
    38f4:	1800091e 	bne	r3,zero,391c <f_lseek+0x5c>
    38f8:	00800244 	movi	r2,9
    38fc:	dfc00517 	ldw	ra,20(sp)
    3900:	dd000417 	ldw	r20,16(sp)
    3904:	dcc00317 	ldw	r19,12(sp)
    3908:	dc800217 	ldw	r18,8(sp)
    390c:	dc400117 	ldw	r17,4(sp)
    3910:	dc000017 	ldw	r16,0(sp)
    3914:	dec00604 	addi	sp,sp,24
    3918:	f800283a 	ret
    391c:	10c0018b 	ldhu	r3,6(r2)
    3920:	213fffcc 	andi	r4,r4,65535
    3924:	20fff41e 	bne	r4,r3,38f8 <f_lseek+0x38>
    3928:	11000043 	ldbu	r4,1(r2)
    392c:	0006d980 	call	6d98 <ffs_DiskIOStatus>
    3930:	1080004c 	andi	r2,r2,1
    3934:	10000226 	beq	r2,zero,3940 <f_lseek+0x80>
    3938:	008000c4 	movi	r2,3
    393c:	003fef06 	br	38fc <f_lseek+0x3c>
    3940:	80c00183 	ldbu	r3,6(r16)
    3944:	18803fcc 	andi	r2,r3,255
    3948:	1080201c 	xori	r2,r2,128
    394c:	10bfe004 	addi	r2,r2,-128
    3950:	10009e16 	blt	r2,zero,3bcc <f_lseek+0x30c>
    3954:	80800317 	ldw	r2,12(r16)
    3958:	1440042e 	bgeu	r2,r17,396c <f_lseek+0xac>
    395c:	18c0008c 	andi	r3,r3,2
    3960:	18c03fcc 	andi	r3,r3,255
    3964:	1800011e 	bne	r3,zero,396c <f_lseek+0xac>
    3968:	1023883a 	mov	r17,r2
    396c:	80800217 	ldw	r2,8(r16)
    3970:	80000215 	stw	zero,8(r16)
    3974:	88003226 	beq	r17,zero,3a40 <f_lseek+0x180>
    3978:	81000017 	ldw	r4,0(r16)
    397c:	24800083 	ldbu	r18,2(r4)
    3980:	9024927a 	slli	r18,r18,9
    3984:	10003726 	beq	r2,zero,3a64 <f_lseek+0x1a4>
    3988:	10bfffc4 	addi	r2,r2,-1
    398c:	897fffc4 	addi	r5,r17,-1
    3990:	2c8b203a 	divu	r5,r5,r18
    3994:	1487203a 	divu	r3,r2,r18
    3998:	28c03236 	bltu	r5,r3,3a64 <f_lseek+0x1a4>
    399c:	0487c83a 	sub	r3,zero,r18
    39a0:	1884703a 	and	r2,r3,r2
    39a4:	80800215 	stw	r2,8(r16)
    39a8:	88a3c83a 	sub	r17,r17,r2
    39ac:	80800517 	ldw	r2,20(r16)
    39b0:	1000391e 	bne	r2,zero,3a98 <f_lseek+0x1d8>
    39b4:	80c00217 	ldw	r3,8(r16)
    39b8:	0023883a 	mov	r17,zero
    39bc:	18807fcc 	andi	r2,r3,511
    39c0:	10007e26 	beq	r2,zero,3bbc <f_lseek+0x2fc>
    39c4:	81800617 	ldw	r6,24(r16)
    39c8:	34407c26 	beq	r6,r17,3bbc <f_lseek+0x2fc>
    39cc:	80800183 	ldbu	r2,6(r16)
    39d0:	1080100c 	andi	r2,r2,64
    39d4:	10803fcc 	andi	r2,r2,255
    39d8:	10006d1e 	bne	r2,zero,3b90 <f_lseek+0x2d0>
    39dc:	84800904 	addi	r18,r16,36
    39e0:	80800017 	ldw	r2,0(r16)
    39e4:	900b883a 	mov	r5,r18
    39e8:	880d883a 	mov	r6,r17
    39ec:	11000043 	ldbu	r4,1(r2)
    39f0:	01c00044 	movi	r7,1
    39f4:	0006da00 	call	6da0 <ffs_DiskIORead>
    39f8:	1000591e 	bne	r2,zero,3b60 <f_lseek+0x2a0>
    39fc:	80c00217 	ldw	r3,8(r16)
    3a00:	80800317 	ldw	r2,12(r16)
    3a04:	84400615 	stw	r17,24(r16)
    3a08:	10c00d2e 	bgeu	r2,r3,3a40 <f_lseek+0x180>
    3a0c:	81000183 	ldbu	r4,6(r16)
    3a10:	80c00315 	stw	r3,12(r16)
    3a14:	0005883a 	mov	r2,zero
    3a18:	20c00814 	ori	r3,r4,32
    3a1c:	80c00185 	stb	r3,6(r16)
    3a20:	dfc00517 	ldw	ra,20(sp)
    3a24:	dd000417 	ldw	r20,16(sp)
    3a28:	dcc00317 	ldw	r19,12(sp)
    3a2c:	dc800217 	ldw	r18,8(sp)
    3a30:	dc400117 	ldw	r17,4(sp)
    3a34:	dc000017 	ldw	r16,0(sp)
    3a38:	dec00604 	addi	sp,sp,24
    3a3c:	f800283a 	ret
    3a40:	0005883a 	mov	r2,zero
    3a44:	dfc00517 	ldw	ra,20(sp)
    3a48:	dd000417 	ldw	r20,16(sp)
    3a4c:	dcc00317 	ldw	r19,12(sp)
    3a50:	dc800217 	ldw	r18,8(sp)
    3a54:	dc400117 	ldw	r17,4(sp)
    3a58:	dc000017 	ldw	r16,0(sp)
    3a5c:	dec00604 	addi	sp,sp,24
    3a60:	f800283a 	ret
    3a64:	80800417 	ldw	r2,16(r16)
    3a68:	10000226 	beq	r2,zero,3a74 <f_lseek+0x1b4>
    3a6c:	80800515 	stw	r2,20(r16)
    3a70:	003fcf06 	br	39b0 <f_lseek+0xf0>
    3a74:	000b883a 	mov	r5,zero
    3a78:	00017700 	call	1770 <create_chain>
    3a7c:	00c00044 	movi	r3,1
    3a80:	10c03d26 	beq	r2,r3,3b78 <f_lseek+0x2b8>
    3a84:	013fffc4 	movi	r4,-1
    3a88:	11003526 	beq	r2,r4,3b60 <f_lseek+0x2a0>
    3a8c:	80800415 	stw	r2,16(r16)
    3a90:	80800515 	stw	r2,20(r16)
    3a94:	003fc606 	br	39b0 <f_lseek+0xf0>
    3a98:	94404e2e 	bgeu	r18,r17,3bd4 <f_lseek+0x314>
    3a9c:	81000017 	ldw	r4,0(r16)
    3aa0:	05000044 	movi	r20,1
    3aa4:	04ffffc4 	movi	r19,-1
    3aa8:	80c00183 	ldbu	r3,6(r16)
    3aac:	18c0008c 	andi	r3,r3,2
    3ab0:	18c03fcc 	andi	r3,r3,255
    3ab4:	18002226 	beq	r3,zero,3b40 <f_lseek+0x280>
    3ab8:	100b883a 	mov	r5,r2
    3abc:	00017700 	call	1770 <create_chain>
    3ac0:	10001c26 	beq	r2,zero,3b34 <f_lseek+0x274>
    3ac4:	14c02626 	beq	r2,r19,3b60 <f_lseek+0x2a0>
    3ac8:	a0802b2e 	bgeu	r20,r2,3b78 <f_lseek+0x2b8>
    3acc:	81000017 	ldw	r4,0(r16)
    3ad0:	20c00717 	ldw	r3,28(r4)
    3ad4:	10c0282e 	bgeu	r2,r3,3b78 <f_lseek+0x2b8>
    3ad8:	80c00217 	ldw	r3,8(r16)
    3adc:	80800515 	stw	r2,20(r16)
    3ae0:	8ca3c83a 	sub	r17,r17,r18
    3ae4:	90c7883a 	add	r3,r18,r3
    3ae8:	80c00215 	stw	r3,8(r16)
    3aec:	947fee36 	bltu	r18,r17,3aa8 <f_lseek+0x1e8>
    3af0:	1c47883a 	add	r3,r3,r17
    3af4:	80c00215 	stw	r3,8(r16)
    3af8:	89007fcc 	andi	r4,r17,511
    3afc:	20003126 	beq	r4,zero,3bc4 <f_lseek+0x304>
    3b00:	81000017 	ldw	r4,0(r16)
    3b04:	10bfff84 	addi	r2,r2,-2
    3b08:	21400717 	ldw	r5,28(r4)
    3b0c:	297fff84 	addi	r5,r5,-2
    3b10:	1140192e 	bgeu	r2,r5,3b78 <f_lseek+0x2b8>
    3b14:	21400083 	ldbu	r5,2(r4)
    3b18:	21000b17 	ldw	r4,44(r4)
    3b1c:	1145383a 	mul	r2,r2,r5
    3b20:	1105883a 	add	r2,r2,r4
    3b24:	10001426 	beq	r2,zero,3b78 <f_lseek+0x2b8>
    3b28:	8822d27a 	srli	r17,r17,9
    3b2c:	1463883a 	add	r17,r2,r17
    3b30:	003fa206 	br	39bc <f_lseek+0xfc>
    3b34:	80c00217 	ldw	r3,8(r16)
    3b38:	9023883a 	mov	r17,r18
    3b3c:	003fec06 	br	3af0 <f_lseek+0x230>
    3b40:	a080052e 	bgeu	r20,r2,3b58 <f_lseek+0x298>
    3b44:	20c00717 	ldw	r3,28(r4)
    3b48:	10c0032e 	bgeu	r2,r3,3b58 <f_lseek+0x298>
    3b4c:	100b883a 	mov	r5,r2
    3b50:	00012280 	call	1228 <get_fat.part.2>
    3b54:	003fdb06 	br	3ac4 <f_lseek+0x204>
    3b58:	00800044 	movi	r2,1
    3b5c:	003fd906 	br	3ac4 <f_lseek+0x204>
    3b60:	81000183 	ldbu	r4,6(r16)
    3b64:	00ffe004 	movi	r3,-128
    3b68:	00800044 	movi	r2,1
    3b6c:	20c6b03a 	or	r3,r4,r3
    3b70:	80c00185 	stb	r3,6(r16)
    3b74:	003f6106 	br	38fc <f_lseek+0x3c>
    3b78:	81000183 	ldbu	r4,6(r16)
    3b7c:	00ffe004 	movi	r3,-128
    3b80:	00800084 	movi	r2,2
    3b84:	20c6b03a 	or	r3,r4,r3
    3b88:	80c00185 	stb	r3,6(r16)
    3b8c:	003f5b06 	br	38fc <f_lseek+0x3c>
    3b90:	80800017 	ldw	r2,0(r16)
    3b94:	84800904 	addi	r18,r16,36
    3b98:	900b883a 	mov	r5,r18
    3b9c:	11000043 	ldbu	r4,1(r2)
    3ba0:	01c00044 	movi	r7,1
    3ba4:	0006fbc0 	call	6fbc <ffs_DiskIOWrite>
    3ba8:	103fed1e 	bne	r2,zero,3b60 <f_lseek+0x2a0>
    3bac:	80800183 	ldbu	r2,6(r16)
    3bb0:	10802fcc 	andi	r2,r2,191
    3bb4:	80800185 	stb	r2,6(r16)
    3bb8:	003f8906 	br	39e0 <f_lseek+0x120>
    3bbc:	80800317 	ldw	r2,12(r16)
    3bc0:	003f9106 	br	3a08 <f_lseek+0x148>
    3bc4:	0023883a 	mov	r17,zero
    3bc8:	003f7c06 	br	39bc <f_lseek+0xfc>
    3bcc:	00800084 	movi	r2,2
    3bd0:	003f4a06 	br	38fc <f_lseek+0x3c>
    3bd4:	80c00217 	ldw	r3,8(r16)
    3bd8:	003fc506 	br	3af0 <f_lseek+0x230>

00003bdc <f_opendir>:
    3bdc:	defffa04 	addi	sp,sp,-24
    3be0:	dc000415 	stw	r16,16(sp)
    3be4:	2021883a 	mov	r16,r4
    3be8:	d9400315 	stw	r5,12(sp)
    3bec:	d9000304 	addi	r4,sp,12
    3bf0:	800b883a 	mov	r5,r16
    3bf4:	000d883a 	mov	r6,zero
    3bf8:	dfc00515 	stw	ra,20(sp)
    3bfc:	00007c40 	call	7c4 <chk_mounted>
    3c00:	10000426 	beq	r2,zero,3c14 <f_opendir+0x38>
    3c04:	dfc00517 	ldw	ra,20(sp)
    3c08:	dc000417 	ldw	r16,16(sp)
    3c0c:	dec00604 	addi	sp,sp,24
    3c10:	f800283a 	ret
    3c14:	d9400317 	ldw	r5,12(sp)
    3c18:	86c00615 	stw	sp,24(r16)
    3c1c:	8009883a 	mov	r4,r16
    3c20:	0001f080 	call	1f08 <follow_path>
    3c24:	1000171e 	bne	r2,zero,3c84 <f_opendir+0xa8>
    3c28:	80800517 	ldw	r2,20(r16)
    3c2c:	10000f26 	beq	r2,zero,3c6c <f_opendir+0x90>
    3c30:	10c002c3 	ldbu	r3,11(r2)
    3c34:	18c0040c 	andi	r3,r3,16
    3c38:	18c03fcc 	andi	r3,r3,255
    3c3c:	18001326 	beq	r3,zero,3c8c <f_opendir+0xb0>
    3c40:	10c00543 	ldbu	r3,21(r2)
    3c44:	11400503 	ldbu	r5,20(r2)
    3c48:	118006c3 	ldbu	r6,27(r2)
    3c4c:	1806923a 	slli	r3,r3,8
    3c50:	11000683 	ldbu	r4,26(r2)
    3c54:	3004923a 	slli	r2,r6,8
    3c58:	1946b03a 	or	r3,r3,r5
    3c5c:	1806943a 	slli	r3,r3,16
    3c60:	1104b03a 	or	r2,r2,r4
    3c64:	1884b03a 	or	r2,r3,r2
    3c68:	80800215 	stw	r2,8(r16)
    3c6c:	80800017 	ldw	r2,0(r16)
    3c70:	8009883a 	mov	r4,r16
    3c74:	000b883a 	mov	r5,zero
    3c78:	1080018b 	ldhu	r2,6(r2)
    3c7c:	8080010d 	sth	r2,4(r16)
    3c80:	000161c0 	call	161c <dir_sdi>
    3c84:	00c00104 	movi	r3,4
    3c88:	10ffde1e 	bne	r2,r3,3c04 <f_opendir+0x28>
    3c8c:	00800144 	movi	r2,5
    3c90:	dfc00517 	ldw	ra,20(sp)
    3c94:	dc000417 	ldw	r16,16(sp)
    3c98:	dec00604 	addi	sp,sp,24
    3c9c:	f800283a 	ret

00003ca0 <f_readdir>:
    3ca0:	20800017 	ldw	r2,0(r4)
    3ca4:	defffa04 	addi	sp,sp,-24
    3ca8:	dc000415 	stw	r16,16(sp)
    3cac:	dfc00515 	stw	ra,20(sp)
    3cb0:	2021883a 	mov	r16,r4
    3cb4:	2100010b 	ldhu	r4,4(r4)
    3cb8:	10000226 	beq	r2,zero,3cc4 <f_readdir+0x24>
    3cbc:	10c00003 	ldbu	r3,0(r2)
    3cc0:	1800051e 	bne	r3,zero,3cd8 <f_readdir+0x38>
    3cc4:	00800244 	movi	r2,9
    3cc8:	dfc00517 	ldw	ra,20(sp)
    3ccc:	dc000417 	ldw	r16,16(sp)
    3cd0:	dec00604 	addi	sp,sp,24
    3cd4:	f800283a 	ret
    3cd8:	10c0018b 	ldhu	r3,6(r2)
    3cdc:	213fffcc 	andi	r4,r4,65535
    3ce0:	20fff81e 	bne	r4,r3,3cc4 <f_readdir+0x24>
    3ce4:	11000043 	ldbu	r4,1(r2)
    3ce8:	d9400315 	stw	r5,12(sp)
    3cec:	0006d980 	call	6d98 <ffs_DiskIOStatus>
    3cf0:	1080004c 	andi	r2,r2,1
    3cf4:	d9400317 	ldw	r5,12(sp)
    3cf8:	10000226 	beq	r2,zero,3d04 <f_readdir+0x64>
    3cfc:	008000c4 	movi	r2,3
    3d00:	003ff106 	br	3cc8 <f_readdir+0x28>
    3d04:	28001326 	beq	r5,zero,3d54 <f_readdir+0xb4>
    3d08:	86c00615 	stw	sp,24(r16)
    3d0c:	8009883a 	mov	r4,r16
    3d10:	d9400315 	stw	r5,12(sp)
    3d14:	00023e40 	call	23e4 <dir_read>
    3d18:	00c00104 	movi	r3,4
    3d1c:	d9400317 	ldw	r5,12(sp)
    3d20:	10c00a26 	beq	r2,r3,3d4c <f_readdir+0xac>
    3d24:	103fe81e 	bne	r2,zero,3cc8 <f_readdir+0x28>
    3d28:	8009883a 	mov	r4,r16
    3d2c:	00002980 	call	298 <get_fileinfo>
    3d30:	8009883a 	mov	r4,r16
    3d34:	0001de40 	call	1de4 <dir_next.constprop.8>
    3d38:	00c00104 	movi	r3,4
    3d3c:	10ffe21e 	bne	r2,r3,3cc8 <f_readdir+0x28>
    3d40:	80000415 	stw	zero,16(r16)
    3d44:	0005883a 	mov	r2,zero
    3d48:	003fdf06 	br	3cc8 <f_readdir+0x28>
    3d4c:	80000415 	stw	zero,16(r16)
    3d50:	003ff506 	br	3d28 <f_readdir+0x88>
    3d54:	8009883a 	mov	r4,r16
    3d58:	000b883a 	mov	r5,zero
    3d5c:	000161c0 	call	161c <dir_sdi>
    3d60:	003fd906 	br	3cc8 <f_readdir+0x28>

00003d64 <f_stat>:
    3d64:	defff204 	addi	sp,sp,-56
    3d68:	dc000c15 	stw	r16,48(sp)
    3d6c:	d9000a15 	stw	r4,40(sp)
    3d70:	2821883a 	mov	r16,r5
    3d74:	d9000a04 	addi	r4,sp,40
    3d78:	d80b883a 	mov	r5,sp
    3d7c:	000d883a 	mov	r6,zero
    3d80:	dfc00d15 	stw	ra,52(sp)
    3d84:	00007c40 	call	7c4 <chk_mounted>
    3d88:	10000426 	beq	r2,zero,3d9c <f_stat+0x38>
    3d8c:	dfc00d17 	ldw	ra,52(sp)
    3d90:	dc000c17 	ldw	r16,48(sp)
    3d94:	dec00e04 	addi	sp,sp,56
    3d98:	f800283a 	ret
    3d9c:	d9400a17 	ldw	r5,40(sp)
    3da0:	d8800704 	addi	r2,sp,28
    3da4:	d809883a 	mov	r4,sp
    3da8:	d8800615 	stw	r2,24(sp)
    3dac:	0001f080 	call	1f08 <follow_path>
    3db0:	103ff61e 	bne	r2,zero,3d8c <f_stat+0x28>
    3db4:	d8c00517 	ldw	r3,20(sp)
    3db8:	18000926 	beq	r3,zero,3de0 <f_stat+0x7c>
    3dbc:	d809883a 	mov	r4,sp
    3dc0:	800b883a 	mov	r5,r16
    3dc4:	d8800b15 	stw	r2,44(sp)
    3dc8:	00002980 	call	298 <get_fileinfo>
    3dcc:	d8800b17 	ldw	r2,44(sp)
    3dd0:	dfc00d17 	ldw	ra,52(sp)
    3dd4:	dc000c17 	ldw	r16,48(sp)
    3dd8:	dec00e04 	addi	sp,sp,56
    3ddc:	f800283a 	ret
    3de0:	00800184 	movi	r2,6
    3de4:	dfc00d17 	ldw	ra,52(sp)
    3de8:	dc000c17 	ldw	r16,48(sp)
    3dec:	dec00e04 	addi	sp,sp,56
    3df0:	f800283a 	ret

00003df4 <f_getfree>:
    3df4:	defff004 	addi	sp,sp,-64
    3df8:	dd400b15 	stw	r21,44(sp)
    3dfc:	dcc00915 	stw	r19,36(sp)
    3e00:	d9000015 	stw	r4,0(sp)
    3e04:	3027883a 	mov	r19,r6
    3e08:	282b883a 	mov	r21,r5
    3e0c:	d809883a 	mov	r4,sp
    3e10:	300b883a 	mov	r5,r6
    3e14:	000d883a 	mov	r6,zero
    3e18:	dc800815 	stw	r18,32(sp)
    3e1c:	dfc00f15 	stw	ra,60(sp)
    3e20:	df000e15 	stw	fp,56(sp)
    3e24:	ddc00d15 	stw	r23,52(sp)
    3e28:	dd800c15 	stw	r22,48(sp)
    3e2c:	dd000a15 	stw	r20,40(sp)
    3e30:	dc400715 	stw	r17,28(sp)
    3e34:	dc000615 	stw	r16,24(sp)
    3e38:	00007c40 	call	7c4 <chk_mounted>
    3e3c:	1025883a 	mov	r18,r2
    3e40:	1000261e 	bne	r2,zero,3edc <f_getfree+0xe8>
    3e44:	9c000017 	ldw	r16,0(r19)
    3e48:	84400717 	ldw	r17,28(r16)
    3e4c:	80800417 	ldw	r2,16(r16)
    3e50:	88ffff84 	addi	r3,r17,-2
    3e54:	1880462e 	bgeu	r3,r2,3f70 <f_getfree+0x17c>
    3e58:	87000003 	ldbu	fp,0(r16)
    3e5c:	05800044 	movi	r22,1
    3e60:	e5807b26 	beq	fp,r22,4050 <f_getfree+0x25c>
    3e64:	82400917 	ldw	r9,36(r16)
    3e68:	0007883a 	mov	r3,zero
    3e6c:	0009883a 	mov	r4,zero
    3e70:	0029883a 	mov	r20,zero
    3e74:	05c00084 	movi	r23,2
    3e78:	05840034 	movhi	r22,4096
    3e7c:	b5bfffc4 	addi	r22,r22,-1
    3e80:	20002326 	beq	r4,zero,3f10 <f_getfree+0x11c>
    3e84:	e5c02e26 	beq	fp,r23,3f40 <f_getfree+0x14c>
    3e88:	188000c3 	ldbu	r2,3(r3)
    3e8c:	19c00083 	ldbu	r7,2(r3)
    3e90:	19400043 	ldbu	r5,1(r3)
    3e94:	1004963a 	slli	r2,r2,24
    3e98:	380e943a 	slli	r7,r7,16
    3e9c:	19800003 	ldbu	r6,0(r3)
    3ea0:	280a923a 	slli	r5,r5,8
    3ea4:	11c4b03a 	or	r2,r2,r7
    3ea8:	1184b03a 	or	r2,r2,r6
    3eac:	1144b03a 	or	r2,r2,r5
    3eb0:	1584703a 	and	r2,r2,r22
    3eb4:	1000011e 	bne	r2,zero,3ebc <f_getfree+0xc8>
    3eb8:	a5000044 	addi	r20,r20,1
    3ebc:	18c00104 	addi	r3,r3,4
    3ec0:	213fff04 	addi	r4,r4,-4
    3ec4:	8c7fffc4 	addi	r17,r17,-1
    3ec8:	883fed1e 	bne	r17,zero,3e80 <f_getfree+0x8c>
    3ecc:	85000415 	stw	r20,16(r16)
    3ed0:	008000c4 	movi	r2,3
    3ed4:	e0805a26 	beq	fp,r2,4040 <f_getfree+0x24c>
    3ed8:	ad000015 	stw	r20,0(r21)
    3edc:	9005883a 	mov	r2,r18
    3ee0:	dfc00f17 	ldw	ra,60(sp)
    3ee4:	df000e17 	ldw	fp,56(sp)
    3ee8:	ddc00d17 	ldw	r23,52(sp)
    3eec:	dd800c17 	ldw	r22,48(sp)
    3ef0:	dd400b17 	ldw	r21,44(sp)
    3ef4:	dd000a17 	ldw	r20,40(sp)
    3ef8:	dcc00917 	ldw	r19,36(sp)
    3efc:	dc800817 	ldw	r18,32(sp)
    3f00:	dc400717 	ldw	r17,28(sp)
    3f04:	dc000617 	ldw	r16,24(sp)
    3f08:	dec01004 	addi	sp,sp,64
    3f0c:	f800283a 	ret
    3f10:	80c00c17 	ldw	r3,48(r16)
    3f14:	48800044 	addi	r2,r9,1
    3f18:	d8800115 	stw	r2,4(sp)
    3f1c:	48c00426 	beq	r9,r3,3f30 <f_getfree+0x13c>
    3f20:	80800103 	ldbu	r2,4(r16)
    3f24:	10001e1e 	bne	r2,zero,3fa0 <f_getfree+0x1ac>
    3f28:	4800131e 	bne	r9,zero,3f78 <f_getfree+0x184>
    3f2c:	9c000017 	ldw	r16,0(r19)
    3f30:	80c00d04 	addi	r3,r16,52
    3f34:	da400117 	ldw	r9,4(sp)
    3f38:	01008004 	movi	r4,512
    3f3c:	e5ffd21e 	bne	fp,r23,3e88 <f_getfree+0x94>
    3f40:	18800043 	ldbu	r2,1(r3)
    3f44:	19400003 	ldbu	r5,0(r3)
    3f48:	1004923a 	slli	r2,r2,8
    3f4c:	1144b03a 	or	r2,r2,r5
    3f50:	10bfffcc 	andi	r2,r2,65535
    3f54:	10a0001c 	xori	r2,r2,32768
    3f58:	10a00004 	addi	r2,r2,-32768
    3f5c:	1000011e 	bne	r2,zero,3f64 <f_getfree+0x170>
    3f60:	a5000044 	addi	r20,r20,1
    3f64:	18c00084 	addi	r3,r3,2
    3f68:	213fff84 	addi	r4,r4,-2
    3f6c:	003fd506 	br	3ec4 <f_getfree+0xd0>
    3f70:	a8800015 	stw	r2,0(r21)
    3f74:	003fd906 	br	3edc <f_getfree+0xe8>
    3f78:	81000043 	ldbu	r4,1(r16)
    3f7c:	480d883a 	mov	r6,r9
    3f80:	81400d04 	addi	r5,r16,52
    3f84:	01c00044 	movi	r7,1
    3f88:	da400515 	stw	r9,20(sp)
    3f8c:	0006da00 	call	6da0 <ffs_DiskIORead>
    3f90:	da400517 	ldw	r9,20(sp)
    3f94:	1000351e 	bne	r2,zero,406c <f_getfree+0x278>
    3f98:	82400c15 	stw	r9,48(r16)
    3f9c:	003fe306 	br	3f2c <f_getfree+0x138>
    3fa0:	81000043 	ldbu	r4,1(r16)
    3fa4:	81400d04 	addi	r5,r16,52
    3fa8:	180d883a 	mov	r6,r3
    3fac:	01c00044 	movi	r7,1
    3fb0:	d8c00415 	stw	r3,16(sp)
    3fb4:	da400515 	stw	r9,20(sp)
    3fb8:	d9400215 	stw	r5,8(sp)
    3fbc:	0006fbc0 	call	6fbc <ffs_DiskIOWrite>
    3fc0:	d8c00417 	ldw	r3,16(sp)
    3fc4:	da400517 	ldw	r9,20(sp)
    3fc8:	1000281e 	bne	r2,zero,406c <f_getfree+0x278>
    3fcc:	80800817 	ldw	r2,32(r16)
    3fd0:	81000917 	ldw	r4,36(r16)
    3fd4:	80000105 	stb	zero,4(r16)
    3fd8:	1109883a 	add	r4,r2,r4
    3fdc:	193fd22e 	bgeu	r3,r4,3f28 <f_getfree+0x134>
    3fe0:	830000c3 	ldbu	r12,3(r16)
    3fe4:	01400044 	movi	r5,1
    3fe8:	61003fcc 	andi	r4,r12,255
    3fec:	29000236 	bltu	r5,r4,3ff8 <f_getfree+0x204>
    3ff0:	003fcd06 	br	3f28 <f_getfree+0x134>
    3ff4:	80800817 	ldw	r2,32(r16)
    3ff8:	81000043 	ldbu	r4,1(r16)
    3ffc:	d9400217 	ldw	r5,8(sp)
    4000:	1887883a 	add	r3,r3,r2
    4004:	633fffc4 	addi	r12,r12,-1
    4008:	180d883a 	mov	r6,r3
    400c:	01c00044 	movi	r7,1
    4010:	d8c00415 	stw	r3,16(sp)
    4014:	da400515 	stw	r9,20(sp)
    4018:	db000315 	stw	r12,12(sp)
    401c:	0006fbc0 	call	6fbc <ffs_DiskIOWrite>
    4020:	db000317 	ldw	r12,12(sp)
    4024:	01000044 	movi	r4,1
    4028:	d8c00417 	ldw	r3,16(sp)
    402c:	60803fcc 	andi	r2,r12,255
    4030:	da400517 	ldw	r9,20(sp)
    4034:	113fef1e 	bne	r2,r4,3ff4 <f_getfree+0x200>
    4038:	483fbc26 	beq	r9,zero,3f2c <f_getfree+0x138>
    403c:	003fce06 	br	3f78 <f_getfree+0x184>
    4040:	00800044 	movi	r2,1
    4044:	80800145 	stb	r2,5(r16)
    4048:	ad000015 	stw	r20,0(r21)
    404c:	003fa306 	br	3edc <f_getfree+0xe8>
    4050:	00800084 	movi	r2,2
    4054:	0029883a 	mov	r20,zero
    4058:	14400a36 	bltu	r2,r17,4084 <f_getfree+0x290>
    405c:	04800084 	movi	r18,2
    4060:	85000415 	stw	r20,16(r16)
    4064:	ad000015 	stw	r20,0(r21)
    4068:	003f9c06 	br	3edc <f_getfree+0xe8>
    406c:	9c000017 	ldw	r16,0(r19)
    4070:	008000c4 	movi	r2,3
    4074:	04800044 	movi	r18,1
    4078:	85000415 	stw	r20,16(r16)
    407c:	e0bf961e 	bne	fp,r2,3ed8 <f_getfree+0xe4>
    4080:	003fef06 	br	4040 <f_getfree+0x24c>
    4084:	1023883a 	mov	r17,r2
    4088:	05bfffc4 	movi	r22,-1
    408c:	e02f883a 	mov	r23,fp
    4090:	880b883a 	mov	r5,r17
    4094:	8009883a 	mov	r4,r16
    4098:	00012280 	call	1228 <get_fat.part.2>
    409c:	8c400044 	addi	r17,r17,1
    40a0:	15800926 	beq	r2,r22,40c8 <f_getfree+0x2d4>
    40a4:	15c00c26 	beq	r2,r23,40d8 <f_getfree+0x2e4>
    40a8:	1000011e 	bne	r2,zero,40b0 <f_getfree+0x2bc>
    40ac:	a5000044 	addi	r20,r20,1
    40b0:	9c000017 	ldw	r16,0(r19)
    40b4:	80800717 	ldw	r2,28(r16)
    40b8:	88bfe92e 	bgeu	r17,r2,4060 <f_getfree+0x26c>
    40bc:	bc7ff436 	bltu	r23,r17,4090 <f_getfree+0x29c>
    40c0:	04800084 	movi	r18,2
    40c4:	003fe606 	br	4060 <f_getfree+0x26c>
